#
# Extracted from HP-12C ROM (Serial: 2651A51515) on 2019-Apr-19.
# Endaf Jones <jonese@zener.com>
#

 0000 107                                       ?c  goto [J0000] +32 0020
 0001 04E                                       c=0     w
 0002 270                                       sel ram
 0003 238                                       rdreg 8
 0004 2EE                                       ? c<>0  w
 0005 14F                                       ?c  goto [J0001] +41 002E
 0006 1E5 000                                   ?nc call [J0002] 0079
 0008 04E     [J0007]                           c=0     w
 0009 2E0                                       disp off
 000A 06E                                       ab ex   w
 000B 014                                       ? pt= 3
 000C 06B                                       ?nc goto [J0003] +13 0019
 000D 0A9 000                                   ?nc call [J0004] 002A
 000F 13B                                       ?nc goto [J0005] +39 0036
 0010 118                                       ???
 0011 060                                       powoff

 0012 0EC                                       ? ext 10
 0013 111 0E8                                   ?nc call [J0006] 3A44
 0015 0F0                                       c<>n
 0016 393     [J0023]                           ?nc goto [J0007] -14 0008
 0017 0E4                                       selprf 3
 0018 02E                                       b=0     w
 0019 220     [J0003]                           c=keys
 001A 330                                       cxisa
 001B 05A                                       c=0     m
 001C 1BC                                       ? rcr 11
 001D 170                                       push c
 001E 359 042                                   ?nc goto [J0008] 10D6
 0020 1E5 000 [J0000]                           ?nc call [J0002] 0079
 0022 3E5 02C                                   ?nc call [J0009] 0BF9
 0024 366                                       ? a<>c  x
 0025 04F                                       ?c  goto [J0001] +9 002E
 0026 19D 04E                                   ?nc goto [J0010] 1367
 0028 19C                                       pt= 11
 0029 13B                                       ?nc goto [J0011] +39 0050
 002A 3E5 02C [J0004]                           ?nc call [J0009] 0BF9
 002C 366                                       ? a<>c  x
 002D 360                                       ?c rtn
 002E 2E0     [J0001]                           disp off
 002F 13B                                       ?nc goto [J0012] +39 0056
 0030 117                                       ?c  goto [J0013] +34 0052
 0031 1B8                                       rdreg 6
 0032 176                                       a=a+1   xs
 0033 0F8                                       rdreg 3
 0034 14C                                       ? s=0 6
 0035 181 17B                                   ?c  goto [J0014] 5E60
 0037 147                                       ?c  goto [J0015] +40 005F
 0038 028                                       wrreg 0
 0039 271 040                                   ?nc call [J0016] 109C
 003B 0B0                                       c=n
 003C 2A8                                       wrreg 10
 003D 0AE                                       ac ex   w
 003E 244     [J0171]                           s=0 9
 003F 304     [J0028]                           s=0 1
 0040 0A0     [J0207]                           sel p
 0041 395 01C                                   ?nc call [J0017] 07E5
 0043 02D 044                                   ?nc call [J0018] 110B
 0045 0D4                                       ? pt= 10
 0046 013                                       ?nc goto [J0019] +2 0048
 0047 204                                       s=0 2
 0048 070     [J0019]                           n=c
 0049 20C                                       ? s=0 2
 004A 2A9 00C                                   ?nc call [J0020] 03AA
 004C 20C     [J0164]                           ? s=0 2
 004D 021 00B                                   ?c  goto [J0021] 0208
 004F 35C     [J0032]                           pt= 12
 0050 006     [J0011]                           a=0     x
 0051 235 058 [J0039]                           ?nc call [J0022] 168D
 0053 04C                                       ? s=0 4
 0054 217                                       ?c  goto [J0023] -62 0016
 0055 18C                                       ? s=0 11
 0056 3BD 02C [J0012]                           ?nc call [J0024] 0BEF
 0058 344     [J0035]                           s=0 12
 0059 260                                       set hex
 005A 04E                                       c=0     w
 005B 270                                       sel ram
 005C 26E                                       c=c-1   w
 005D 228                                       wrreg 8
 005E 060                                       powoff

 005F 000     [J0015]                           nop
 0060 214                                       ? pt= 2
 0061 173                                       ?nc goto [J0025] +46 008F
 0062 15C                                       pt= 6
 0063 061 006                                   ?nc goto [J0026] 0118
 0065 0B0     [J0057]                           c=n
 0066 38C                                       ? s=0 0
 0067 177                                       ?c  goto [J0027] +46 0095
 0068 2BB                                       ?nc goto [J0028] -41 003F
 0069 04E                                       c=0     w
 006A 248     [J0671]                           s=1 9
 006B 2A3                                       ?nc goto [J0028] -44 003F
 006C 245 018 [J0425]                           ?nc call [J0029] 0691
 006E 2F0                                       data=c
 006F 3E0                                       rtn

 0070 116                                       a=c     xs
 0071 124                                       selprf 4
 0072 145 11B                                   ?c  goto [J0030] 4651
 0074 14D 135                                   ?c  call [J0031] 4D53
 0076 2CB     [J0043]                           ?nc goto [J0032] -39 004F
 0077 17A                                       a=a+1   m
 0078 099 260                                   ?nc call [J0033] 9826
 007A 0A0                                       sel p
 007B 3C9 02C                                   ?nc call [J0034] 0BF2
 007D 3CC                                       ? kb
 007E 360                                       ?c rtn
 007F 2CB                                       ?nc goto [J0035] -39 0058
 0080 114                                       ? pt= 8
 0081 10B                                       ?nc goto [J0036] +33 00A2
 0082 0F4                                       ??? 3
 0083 0FE                                       bc ex   s
 0084 0C9 09C                                   ?nc call [J0037] 2732
 0086 253     [J0045]                           ?nc goto [J0011] -54 0050
 0087 0DB                                       ?nc goto [J0036] +27 00A2
 0088 133                                       ?nc goto [J0038] +38 00AE
 0089 243     [J0052]                           ?nc goto [J0039] -56 0051
 008A 270     [J0667]                           sel ram
 008B 0AE                                       ac ex   w
 008C 2F0                                       data=c
 008D 0AE                                       ac ex   w
 008E 3E0                                       rtn

 008F 194     [J0025]                           ? pt= 11
 0090 081 006                                   ?nc goto [J0040] 0120
 0092 38C                                       ? s=0 0
 0093 121 05B                                   ?c  goto [J0041] 1648
 0095 260     [J0027]                           set hex
 0096 211 010                                   ?nc call [J0042] 0484
 0098 2F3     [J0056]                           ?nc goto [J0043] -34 0076
 0099 0D4                                       ? pt= 10
 009A 35B                                       ?nc goto [J0044] -21 0085
 009B 21C                                       pt= 2
 009C 353                                       ?nc goto [J0045] -22 0086
 009D 0AE     [J0390]                           ac ex   w
 009E 04E                                       c=0     w
 009F 270                                       sel ram
 00A0 038                                       rdreg 0
 00A1 0AE                                       ac ex   w
 00A2 3E0     [J0036]                           rtn

 00A3 04E     [J0193]                           c=0     w
 00A4 270                                       sel ram
 00A5 138                                       rdreg 4
 00A6 09C                                       pt= 5
 00A7 073                                       ?nc goto [J0046] +14 00B5
 00A8 35D 04C [J0453]                           ?nc call [J0047] 13D7
 00AA 04E     [J0188]                           c=0     w
 00AB 270                                       sel ram
 00AC 178                                       rdreg 5
 00AD 11C                                       pt= 8
 00AE 03B     [J0038]                           ?nc goto [J0046] +7 00B5
 00AF 35D 04C [J0210]                           ?nc call [J0047] 13D7
 00B1 04E     [J0190]                           c=0     w
 00B2 270                                       sel ram
 00B3 1B8                                       rdreg 6
 00B4 19C                                       pt= 11
 00B5 0EE     [J0046]                           bc ex   w
 00B6 1D8                                       c<>m
 00B7 1F8                                       rdreg 7
 00B8 3D4     [J0048]                           dec pt
 00B9 3CE                                       c sr    w
 00BA 214                                       ? pt= 2
 00BB 3EB                                       ?nc goto [J0048] -3 00B8
 00BC 0FE                                       bc ex   s
 00BD 0AE                                       ac ex   w
 00BE 1D8                                       c<>m
 00BF 3E0                                       rtn

 00C0 115 11E                                   ?nc goto [J0049] 4745
 00C2 146                                       a=a+c   x
 00C3 0FB                                       ?nc goto [J0050] +31 00E2
 00C4 14E                                       a=a+c   w
 00C5 14F                                       ?c  goto [J0051] +41 00EE
 00C6 21B     [J0058]                           ?nc goto [J0052] -61 0089
 00C7 189 130                                   ?nc call [J0053] 4C62
 00C9 194                                       ? pt= 11
 00CA 1E3                                       ?nc goto [J0054] +60 0106
 00CB 38C                                       ? s=0 0
 00CC 1B5 036                                   ?nc goto [J0055] 0D6D
 00CE 253     [J0077]                           ?nc goto [J0056] -54 0098
 00CF 044     [J0060]                           s=0 4
 00D0 3D8     [J0061]                           c<>s
 00D1 058                                       g=c
 00D2 195 002                                   ?nc goto [J0057] 0065
 00D4 166     [J0066]                           a=a+1   x
 00D5 166     [J0062]                           a=a+1   x
 00D6 166     [J0064]                           a=a+1   x
 00D7 3E6     [J0067]                           a sl    x
 00D8 3E6                                       a sl    x
 00D9 05C                                       pt= 4
 00DA 363                                       ?nc goto [J0058] -20 00C6
 00DB 254                                       ? pt= 9
 00DC 133                                       ?nc goto [J0059] +38 0102
 00DD 39C                                       pt= 0
 00DE 098                                       c=g
 00DF 3D8                                       c<>s
 00E0 04C                                       ? s=0 4
 00E1 377                                       ?c  goto [J0060] -18 00CF
 00E2 048     [J0050]                           s=1 4
 00E3 36B                                       ?nc goto [J0061] -19 00D0
 00E4 254                                       ? pt= 9
 00E5 387                                       ?c  goto [J0062] -16 00D5
 00E6 19C                                       pt= 11
 00E7 0E3                                       ?nc goto [J0063] +28 0103
 00E8 254                                       ? pt= 9
 00E9 36F                                       ?c  goto [J0064] -19 00D6
 00EA 19C                                       pt= 11
 00EB 063                                       ?nc goto [J0065] +12 00F7
 00EC 254                                       ? pt= 9
 00ED 33F                                       ?c  goto [J0066] -25 00D4
 00EE 19C     [J0051]                           pt= 11
 00EF 18B                                       ?nc goto [J0040] +49 0120
 00F0 254                                       ? pt= 9
 00F1 337                                       ?c  goto [J0067] -26 00D7
 00F2 19C                                       pt= 11
 00F3 163                                       ?nc goto [J0068] +44 011F
 00F4 194                                       ? pt= 11
 00F5 163                                       ?nc goto [J0069] +44 0121
 00F6 35C                                       pt= 12
 00F7 153     [J0065]                           ?nc goto [J0069] +42 0121
 00F8 214                                       ? pt= 2
 00F9 11B                                       ?nc goto [J0070] +35 011C
 00FA 15C                                       pt= 6
 00FB 214                                       ? pt= 2
 00FC 0F3                                       ?nc goto [J0071] +30 011A
 00FD 15C                                       pt= 6
 00FE 214                                       ? pt= 2
 00FF 0D3                                       ?nc goto [J0072] +26 0119
 0100 15C                                       pt= 6
 0101 0A3                                       ?nc goto [J0073] +20 0115
 0102 194     [J0059]                           ? pt= 11
 0103 0FB     [J0063]                           ?nc goto [J0074] +31 0122
 0104 35C                                       pt= 12
 0105 0EB                                       ?nc goto [J0074] +29 0122
 0106 094     [J0054]                           ? pt= 5
 0107 01B                                       ?nc goto [J0075] +3 010A
 0108 15C                                       pt= 6
 0109 0AB                                       ?nc goto [J0076] +21 011E
 010A 15C     [J0075]                           pt= 6
 010B 194                                       ? pt= 11
 010C 09B                                       ?nc goto [J0068] +19 011F
 010D 38C                                       ? s=0 0
 010E 207                                       ?c  goto [J0077] -64 00CE
 010F 0E9 05A                                   ?nc goto [J0078] 163A
 0111 214                                       ? pt= 2
 0112 05B                                       ?nc goto [J0079] +11 011D
 0113 15C                                       pt= 6
 0114 166                                       a=a+1   x
 0115 166     [J0073]                           a=a+1   x
 0116 166     [J0120]                           a=a+1   x
 0117 166     [J0083]                           a=a+1   x
 0118 166     [J0026]                           a=a+1   x
 0119 166     [J0072]                           a=a+1   x
 011A 166     [J0071]                           a=a+1   x
 011B 166                                       a=a+1   x
 011C 166     [J0070]                           a=a+1   x
 011D 166     [J0079]                           a=a+1   x
 011E 166     [J0076]                           a=a+1   x
 011F 166     [J0068]                           a=a+1   x
 0120 166     [J0040]                           a=a+1   x
 0121 166     [J0069]                           a=a+1   x
 0122 166     [J0074]                           a=a+1   x
 0123 1DB     [J0090]                           ?nc goto [J0080] +59 015E
 0124 194                                       ? pt= 11
 0125 125 05B                                   ?c  goto [J0081] 1649
 0127 094                                       ? pt= 5
 0128 01F                                       ?c  goto [J0082] +3 012B
 0129 15C                                       pt= 6
 012A 36B                                       ?nc goto [J0083] -19 0117
 012B 31C     [J0082]                           pt= 1
 012C 084     [J0084]                           s=0 5
 012D 3E6     [J0098]                           a sl    x
 012E 145 002 [J0091]                           ?nc goto [J0039] 0051
 0130 25C                                       pt= 9
 0131 006     [J0085]                           a=0     x
 0132 3D3     [J0089]                           ?nc goto [J0084] -6 012C
 0133 0DC                                       pt= 10
 0134 3EB                                       ?nc goto [J0085] -3 0131
 0135 254                                       ? pt= 9
 0136 01B                                       ?nc goto [J0086] +3 0139
 0137 29C                                       pt= 7
 0138 3A3                                       ?nc goto [J0084] -12 012C
 0139 054     [J0086]                           ? pt= 4
 013A 2CD 04F                                   ?c  goto [J0087] 13B3
 013C 0D4                                       ? pt= 10
 013D 01B                                       ?nc goto [J0088] +3 0140
 013E 11C                                       pt= 8
 013F 39B                                       ?nc goto [J0089] -13 0132
 0140 314     [J0088]                           ? pt= 1
 0141 313                                       ?nc goto [J0090] -30 0123
 0142 088                                       s=1 5
 0143 35B                                       ?nc goto [J0091] -21 012E
 0144 166     [J0103]                           a=a+1   x
 0145 166                                       a=a+1   x
 0146 166                                       a=a+1   x
 0147 166                                       a=a+1   x
 0148 166     [J0105]                           a=a+1   x
 0149 054                                       ? pt= 4
 014A 37F                                       ?c  goto [J0086] -17 0139
 014B 166     [J0108]                           a=a+1   x
 014C 166                                       a=a+1   x
 014D 166                                       a=a+1   x
 014E 166                                       a=a+1   x
 014F 054                                       ? pt= 4
 0150 05B                                       ?nc goto [J0092] +11 015B
 0151 130 0EC                                   ldi 0EC
 0153 206                                       c=a+c   x
 0154 1F6                                       c=c+c   xs
 0155 1F6                                       c=c+c   xs
 0156 156                                       a=a+c   xs
 0157 386                                       a sr    x
 0158 386                                       a sr    x
 0159 146                                       a=a+c   x
 015A 0CB                                       ?nc goto [J0093] +25 0173
 015B 094     [J0092]                           ? pt= 5
 015C 01B                                       ?nc goto [J0094] +3 015F
 015D 15C                                       pt= 6
 015E 1AB     [J0080]                           ?nc goto [J0095] +53 0193
 015F 314     [J0094]                           ? pt= 1
 0160 053                                       ?nc goto [J0096] +10 016A
 0161 342                                       ? a<>0  p
 0162 01F                                       ?c  goto [J0097] +3 0165
 0163 166                                       a=a+1   x
 0164 24B                                       ?nc goto [J0098] -55 012D
 0165 1A2     [J0097]                           a=a-1   p
 0166 08C                                       ? s=0 5
 0167 2A5 017                                   ?c  goto [J0099] 05A9
 0169 05B                                       ?nc goto [J0100] +11 0174
 016A 166     [J0096]                           a=a+1   x
 016B 3E6                                       a sl    x
 016C 214                                       ? pt= 2
 016D 013                                       ?nc goto [J0101] +2 016F
 016E 35C                                       pt= 12
 016F 3DC     [J0101]                           inc pt
 0170 1A6                                       a=a-1   x
 0171 2D4                                       ? pt= 13
 0172 3EB                                       ?nc goto [J0101] -3 016F
 0173 084     [J0093]                           s=0 5
 0174 065 00A [J0100]                           ?nc goto [J0102] 0219
 0176 094                                       ? pt= 5
 0177 26B                                       ?nc goto [J0103] -51 0144
 0178 1BD 036                                   ?nc goto [J0104] 0D6F
 017A 094                                       ? pt= 5
 017B 26B                                       ?nc goto [J0105] -51 0148
 017C 39C                                       pt= 0
 017D 0D8                                       c<>g
 017E 3D8                                       c<>s
 017F 148                                       s=1 6
 0180 07B                                       ?nc goto [J0106] +15 018F
 0181 130 0E0                                   ldi 0E0
 0183 094                                       ? pt= 5
 0184 017                                       ?c  goto [J0107] +2 0186
 0185 166                                       a=a+1   x
 0186 31C     [J0107]                           pt= 1
 0187 102                                       a=c     p
 0188 363     [J0117]                           ?nc goto [J0100] -20 0174
 0189 094                                       ? pt= 5
 018A 20B                                       ?nc goto [J0108] -63 014B
 018B 39C                                       pt= 0
 018C 0D8                                       c<>g
 018D 3D8                                       c<>s
 018E 144                                       s=0 6
 018F 3D8     [J0106]                           c<>s
 0190 0D8                                       c<>g
 0191 0B0                                       c=n
 0192 1E3                                       ?nc goto [J0109] +60 01CE
 0193 130 006 [J0095]                           ldi 006
 0195 306                                       ? a<c   x
 0196 04F                                       ?c  goto [J0110] +9 019F
 0197 130 00B                                   ldi 00B
 0199 306                                       ? a<c   x
 019A 02B                                       ?nc goto [J0110] +5 019F
 019B 254                                       ? pt= 9
 019C 0AF                                       ?c  goto [J0111] +21 01B1
 019D 0D4                                       ? pt= 10
 019E 0BF                                       ?c  goto [J0112] +23 01B5
 019F 194     [J0110]                           ? pt= 11
 01A0 023                                       ?nc goto [J0113] +4 01A4
 01A1 31C                                       pt= 1
 01A2 2D0                                       lc 11
 01A3 31B     [J0115]                           ?nc goto [J0107] -29 0186
 01A4 094     [J0113]                           ? pt= 5
 01A5 023                                       ?nc goto [J0114] +4 01A9
 01A6 31C                                       pt= 1
 01A7 310                                       lc 12
 01A8 3DB                                       ?nc goto [J0115] -5 01A3
 01A9 154     [J0114]                           ? pt= 6
 01AA 023                                       ?nc goto [J0116] +4 01AE
 01AB 31C                                       pt= 1
 01AC 350                                       lc 13
 01AD 3B3                                       ?nc goto [J0115] -10 01A3
 01AE 31C     [J0116]                           pt= 1
 01AF 290                                       lc 10
 01B0 39B                                       ?nc goto [J0115] -13 01A3
 01B1 130 0E1 [J0111]                           ldi 0E1
 01B3 146     [J0118]                           a=a+c   x
 01B4 2A3                                       ?nc goto [J0117] -44 0188
 01B5 130 0DC [J0112]                           ldi 0DC
 01B7 3E3                                       ?nc goto [J0118] -4 01B3
 01B8 194                                       ? pt= 11
 01B9 023                                       ?nc goto [J0119] +4 01BD
 01BA 15C                                       pt= 6
 01BB 059 006                                   ?nc goto [J0120] 0116
 01BD 094     [J0119]                           ? pt= 5
 01BE 10B                                       ?nc goto [J0121] +33 01DF
 01BF 359 040 [J0128]                           ?nc call [J0008] 10D6
 01C1 31C                                       pt= 1
 01C2 106                                       a=c     x
 01C3 2EA                                       ? c<>0  wp
 01C4 067                                       ?c  goto [J0122] +12 01D0
 01C5 386                                       a sr    x
 01C6 0A2                                       ac ex   p
 01C7 222                                       c=c+1   p
 01C8 3CA                                       c sr    wp
 01C9 053                                       ?nc goto [J0123] +10 01D3
 01CA 211 010 [J0126]                           ?nc call [J0042] 0484
 01CC 3B1 02C                                   ?nc call [J0124] 0BEC
 01CE 195 002 [J0109]                           ?nc goto [J0057] 0065
 01D0 262     [J0122]                           c=c-1   p
 01D1 04B                                       ?nc goto [J0125] +9 01DA
 01D2 226                                       c=c+1   x
 01D3 190     [J0123]                           lc 6
 01D4 3A8     [J0129]                           wrreg 14
 01D5 38C                                       ? s=0 0
 01D6 3A3                                       ?nc goto [J0126] -12 01CA
 01D7 3B5 01C                                   ?nc call [J0127] 07ED
 01D9 333                                       ?nc goto [J0128] -26 01BF
 01DA 3E6     [J0125]                           a sl    x
 01DB 162                                       a=a+1   p
 01DC 3C3                                       ?nc goto [J0129] -8 01D4
 01DD 04A                                       c=0     wp
 01DE 3B3                                       ?nc goto [J0129] -10 01D4
 01DF 38C     [J0121]                           ? s=0 0
 01E0 0C7                                       ?c  goto [J0130] +24 01F8
 01E1 348                                       s=1 12
 01E2 3B8     [J0140]                           rdreg 14
 01E3 31C                                       pt= 1
 01E4 2EA                                       ? c<>0  wp
 01E5 01F                                       ?c  goto [J0131] +3 01E8
 01E6 2BD 02C                                   ?nc call [J0132] 0BAF
 01E8 211 010 [J0131]                           ?nc call [J0042] 0484
 01EA 3B1 02C                                   ?nc call [J0124] 0BEC
 01EC 2CD 040                                   ?nc call [J0133] 10B3
 01EE 1D8                                       c<>m
 01EF 0AE                                       ac ex   w
 01F0 34C                                       ? s=0 12
 01F1 113                                       ?nc goto [J0134] +34 0213
 01F2 311 02C                                   ?nc call [J0135] 0BC4
 01F4 198                                       c=m
 01F5 2FD 01C                                   ?nc call [J0136] 07BF
 01F7 0F3                                       ?nc goto [J0137] +30 0215
 01F8 311 02C [J0130]                           ?nc call [J0135] 0BC4
 01FA 3B5 01C                                   ?nc call [J0127] 07ED
 01FC 3E3                                       ?nc goto [J0130] -4 01F8
 01FD 260                                       set hex
 01FE 20C                                       ? s=0 2
 01FF 02F                                       ?c  goto [J0138] +5 0204
 0200 208                                       s=1 2
 0201 34C                                       ? s=0 12
 0202 027                                       ?c  goto [J0139] +4 0206
 0203 2FB                                       ?nc goto [J0140] -33 01E2
 0204 311 02C [J0138]                           ?nc call [J0135] 0BC4
 0206 204     [J0139]                           s=0 2
 0207 23B                                       ?nc goto [J0109] -57 01CE
 0208 2AD 02C [J0021]                           ?nc call [J0141] 0BAB
 020A 0CC                                       ? s=0 10
 020B 149 05B                                   ?c  goto [J0142] 1652
 020D 3CC                                       ? kb
 020E 02B                                       ?nc goto [J0134] +5 0213
 020F 0A9 000                                   ?nc call [J0004] 002A
 0211 28C                                       ? s=0 7
 0212 3A3                                       ?nc goto [J0139] -12 0206
 0213 2F5 01C [J0134]                           ?nc call [J0143] 07BD
 0215 3F1 03C [J0137]                           ?nc call [J0144] 0FFC
 0217 245 012 [J0146]                           ?nc goto [J0145] 0491
 0219 38C     [J0102]                           ? s=0 0
 021A 3EB                                       ?nc goto [J0146] -3 0217
 021B 08E                                       b=a     w
 021C 2AD 02C                                   ?nc call [J0141] 0BAB
 021E 0CC                                       ? s=0 10
 021F 0DF                                       ?c  goto [J0147] +27 023A
 0220 3A8     [J0152]                           wrreg 14
 0221 2F5 01C                                   ?nc call [J0143] 07BD
 0223 0CC                                       ? s=0 10
 0224 013                                       ?nc goto [J0148] +2 0226
 0225 04E                                       c=0     w
 0226 31C     [J0148]                           pt= 1
 0227 06E                                       ab ex   w
 0228 0EE                                       bc ex   w
 0229 02B                                       ?nc goto [J0149] +5 022E
 022A 3EE     [J0150]                           a sl    w
 022B 3EE                                       a sl    w
 022C 3DC                                       inc pt
 022D 3DC                                       inc pt
 022E 276     [J0149]                           c=c-1   xs
 022F 3DB                                       ?nc goto [J0150] -5 022A
 0230 06A                                       ab ex   wp
 0231 314                                       ? pt= 1
 0232 027                                       ?c  goto [J0151] +4 0236
 0233 3D4                                       dec pt
 0234 3D4                                       dec pt
 0235 06A                                       ab ex   wp
 0236 0EE     [J0151]                           bc ex   w
 0237 2F0                                       data=c
 0238 255 002                                   ?nc goto [J0027] 0095
 023A 276     [J0147]                           c=c-1   xs
 023B 32B                                       ?nc goto [J0152] -27 0220
 023C 05C     [J0352]                           pt= 4
 023D 2CD 04E                                   ?nc goto [J0087] 13B3
 023F 148                                       s=1 6
 0240 28C                                       ? s=0 7
 0241 18F                                       ?c  goto [J0153] +49 0272
 0242 006                                       a=0     x
 0243 20C     [J0167]                           ? s=0 2
 0244 017                                       ?c  goto [J0154] +2 0246
 0245 320                                       disp toggle
 0246 0B0     [J0154]                           c=n
 0247 361 01C                                   ?nc call [J0155] 07D8
 0249 01C                                       pt= 3
 024A 162     [J0157]                           a=a+1   p
 024B 023                                       ?nc goto [J0156] +4 024F
 024C 3EA                                       a sl    wp
 024D 3DC                                       inc pt
 024E 3E3                                       ?nc goto [J0157] -4 024A
 024F 1A2     [J0156]                           a=a-1   p
 0250 014                                       ? pt= 3
 0251 10F                                       ?c  goto [J0153] +33 0272
 0252 2D4                                       ? pt= 13
 0253 027                                       ?c  goto [J0158] +4 0257
 0254 14C                                       ? s=0 6
 0255 017                                       ?c  goto [J0158] +2 0257
 0256 17E                                       a=a+1   s
 0257 08E     [J0158]                           b=a     w
 0258 3D4                                       dec pt
 0259 3D4                                       dec pt
 025A 1AA                                       a=a-1   wp
 025B 0EE                                       bc ex   w
 025C 23C                                       ? rcr 2
 025D 0DC                                       pt= 10
 025E 3CA                                       c sr    wp
 025F 1BC                                       ? rcr 11
 0260 0AE                                       ac ex   w
 0261 0EE                                       bc ex   w
 0262 35C                                       pt= 12
 0263 11E                                       a=c     s
 0264 2A0                                       set dec
 0265 35A                                       ? a<>0  m
 0266 097                                       ?c  goto [J0159] +18 0278
 0267 00E                                       a=0     w
 0268 0AE     [J0165]                           ac ex   w
 0269 06E                                       ab ex   w
 026A 05B                                       ?nc goto [J0160] +11 0275
 026B 28C                                       ? s=0 7
 026C 01F                                       ?c  goto [J0161] +3 026F
 026D 2BE                                       c=-c-1  s
 026E 1C7                                       ?c  goto [J0162] +56 02A6
 026F 10C     [J0161]                           ? s=0 8
 0270 1E7                                       ?c  goto [J0163] +60 02AC
 0271 2FA                                       ? c<>0  m
 0272 131 002 [J0153]                           ?nc goto [J0164] 004C
 0274 2BE                                       c=-c-1  s
 0275 244     [J0160]                           s=0 9
 0276 0F0                                       c<>n
 0277 3DB                                       ?nc goto [J0153] -5 0272
 0278 342     [J0159]                           ? a<>0  p
 0279 37F                                       ?c  goto [J0165] -17 0268
 027A 1A6                                       a=a-1   x
 027B 3FA                                       a sl    m
 027C 3E3                                       ?nc goto [J0159] -4 0278
 027D 026     [J0168]                           b=0     x
 027E 0C3                                       ?nc goto [J0166] +24 0296
 027F 3E6     [J0325]                           a sl    x
 0280 28C                                       ? s=0 7
 0281 213                                       ?nc goto [J0167] -62 0243
 0282 10C                                       ? s=0 8
 0283 203                                       ?nc goto [J0167] -64 0243
 0284 05C                                       pt= 4
 0285 0B0                                       c=n
 0286 3EA                                       a sl    wp
 0287 08E     [J0173]                           b=a     w
 0288 2A0                                       set dec
 0289 09C     [J0281]                           pt= 5
 028A 38A                                       a sr    wp
 028B 38A                                       a sr    wp
 028C 38A                                       a sr    wp
 028D 086                                       b=a     x
 028E 006                                       a=0     x
 028F 31C                                       pt= 1
 0290 2D6                                       ? b<>0  xs
 0291 02B                                       ?nc goto [J0166] +5 0296
 0292 18A                                       a=a-b   wp
 0293 353                                       ?nc goto [J0168] -22 027D
 0294 08A                                       b=a     wp
 0295 006                                       a=0     x
 0296 0AE     [J0166]                           ac ex   w
 0297 2FC                                       ? rcr 13
 0298 0AE                                       ac ex   w
 0299 126                                       a=a+b   x
 029A 01C                                       pt= 3
 029B 35E     [J0170]                           ? a<>0  s
 029C 02F                                       ?c  goto [J0169] +5 02A1
 029D 1A6                                       a=a-1   x
 029E 3EE                                       a sl    w
 029F 38A                                       a sr    wp
 02A0 3DB                                       ?nc goto [J0170] -5 029B
 02A1 0A6     [J0169]                           ac ex   x
 02A2 06E                                       ab ex   w
 02A3 02D 044                                   ?nc call [J0018] 110B
 02A5 354                                       ? pt= 12
 02A6 0F9 002 [J0162]                           ?nc goto [J0171] 003E
 02A8 26B     [J0175]                           ?nc goto [J0160] -51 0275
 02A9 1E9 030                                   ?nc call [J0172] 0C7A
 02AB 3DB                                       ?nc goto [J0162] -5 02A6
 02AC 09C     [J0163]                           pt= 5
 02AD 0A2                                       ac ex   p
 02AE 2A2                                       c=-c-1  p
 02AF 0A2                                       ac ex   p
 02B0 2BB                                       ?nc goto [J0173] -41 0287
 02B1 284     [J0176]                           s=0 7
 02B2 248                                       s=1 9
 02B3 28C                                       ? s=0 7
 02B4 07F                                       ?c  goto [J0174] +15 02C3
 02B5 361 01C                                   ?nc call [J0155] 07D8
 02B7 02E                                       b=0     w
 02B8 35C                                       pt= 12
 02B9 222                                       c=c+1   p
 02BA 102                                       a=c     p
 02BB 09C     [J0177]                           pt= 5
 02BC 06A                                       ab ex   wp
 02BD 108                                       s=1 8
 02BE 35A                                       ? a<>0  m
 02BF 34F                                       ?c  goto [J0175] -23 02A8
 02C0 104                                       s=0 8
 02C1 06A                                       ab ex   wp
 02C2 333                                       ?nc goto [J0175] -26 02A8
 02C3 2FA     [J0174]                           ? c<>0  m
 02C4 36B                                       ?nc goto [J0176] -19 02B1
 02C5 0EE                                       bc ex   w
 02C6 2DC                                       pt= 13
 02C7 1D0                                       lc 7
 02C8 0EE                                       bc ex   w
 02C9 33E                                       ? a<b   s
 02CA 2F3                                       ?nc goto [J0175] -34 02A8
 02CB 10C                                       ? s=0 8
 02CC 2E7                                       ?c  goto [J0175] -36 02A8
 02CD 02E                                       b=0     w
 02CE 36B                                       ?nc goto [J0177] -19 02BB
 02CF 275 040 [J0514]                           ?nc call [J0178] 109D
 02D1 2F6                                       ? c<>0  xs
 02D2 027                                       ?c  goto [J0179] +4 02D6
 02D3 31C                                       pt= 1
 02D4 2E2                                       ? c<>0  p
 02D5 057                                       ?c  goto [J0180] +10 02DF
 02D6 2FA     [J0179]                           ? c<>0  m
 02D7 043                                       ?nc goto [J0180] +8 02DF
 02D8 2FE                                       ? c<>0  s
 02D9 037                                       ?c  goto [J0180] +6 02DF
 02DA 3E0                                       rtn

 02DB 1BD 040 [J0485]                           ?nc call [J0181] 106F
 02DD 2FA                                       ? c<>0  m
 02DE 3A0                                       ?nc rtn
 02DF 09C     [J0180]                           pt= 5
 02E0 2CD 04E                                   ?nc goto [J0087] 13B3
 02E2 38C     [J0847]                           ? s=0 0
 02E3 360                                       ?c rtn
 02E4 2CC                                       ? s=0 13
 02E5 3D7                                       ?c  goto [J0180] -6 02DF
 02E6 2C8                                       s=1 13
 02E7 3E0                                       rtn

 02E8 349 040                                   ?nc call [J0182] 10D2
 02EA 2F8                                       rdreg 11
 02EB 195 018                                   ?nc call [J0183] 0665
 02ED 35D 04C                                   ?nc call [J0047] 13D7
 02EF 349 040                                   ?nc call [J0182] 10D2
 02F1 338                                       rdreg 12
 02F2 2BE                                       c=-c-1  s
 02F3 379 029                                   ?c  call [J0184] 0ADE
 02F5 359 054                                   ?nc call [J0185] 15D6
 02F7 35D 04C                                   ?nc call [J0047] 13D7
 02F9 219 050                                   ?nc call [J0186] 1486
 02FB 379 028                                   ?nc call [J0184] 0ADE
 02FD 35D 04C                                   ?nc call [J0047] 13D7
 02FF 025 01C                                   ?nc call [J0187] 0709
 0301 2A9 000                                   ?nc call [J0188] 00AA
 0303 24D 018                                   ?nc call [J0189] 0693
 0305 2FA                                       ? c<>0  m
 0306 2CB     [J0200]                           ?nc goto [J0180] -39 02DF
 0307 2C5 000                                   ?nc call [J0190] 00B1
 0309 1F1 01C                                   ?nc call [J0191] 077C
 030B 2FA                                       ? c<>0  m
 030C 14B                                       ?nc goto [J0192] +41 0335
 030D 28D 000                                   ?nc call [J0193] 00A3
 030F 2DA                                       ? b<>0  m
 0310 04B                                       ?nc goto [J0194] +9 0319
 0311 095 01C                                   ?nc call [J0195] 0725
 0313 2FE                                       ? c<>0  s
 0314 05B                                       ?nc goto [J0196] +11 031F
 0315 059 050                                   ?nc call [J0197] 1416
 0317 2BE                                       c=-c-1  s
 0318 0EF                                       ?c  goto [J0192] +29 0335
 0319 10E     [J0194]                           a=c     w
 031A 198                                       c=m
 031B 0BA                                       ac ex   m
 031C 379 028                                   ?nc call [J0184] 0ADE
 031E 0BB                                       ?nc goto [J0192] +23 0335
 031F 28D 000 [J0196]                           ?nc call [J0193] 00A3
 0321 005 01C                                   ?nc call [J0198] 0701
 0323 2A9 000                                   ?nc call [J0188] 00AA
 0325 1FD 040                                   ?nc call [J0199] 107F
 0327 24D 018                                   ?nc call [J0189] 0693
 0329 2FA                                       ? c<>0  m
 032A 2E3     [J0212]                           ?nc goto [J0200] -36 0306
 032B 2C5 000                                   ?nc call [J0190] 00B1
 032D 1F1 01C                                   ?nc call [J0191] 077C
 032F 28D 000                                   ?nc call [J0193] 00A3
 0331 095 01C                                   ?nc call [J0195] 0725
 0333 059 050                                   ?nc call [J0197] 1416
 0335 01D 044 [J0192]                           ?nc call [J0201] 1107
 0337 2FE                                       ? c<>0  s
 0338 277                                       ?c  goto [J0200] -50 0306
 0339 10E                                       a=c     w
 033A 04E                                       c=0     w
 033B 35C                                       pt= 12
 033C 250                                       lc 9
 033D 250                                       lc 9
 033E 150                                       lc 5
 033F 266                                       c=c-1   x
 0340 23D 019                                   ?c  call [J0202] 068F
 0342 1D9 040                                   ?nc call [J0203] 1076
 0344 3E8                                       wrreg 15
 0345 0E3                                       ?nc goto [J0204] +28 0361
 0346 001 050                                   ?nc call [J0205] 1400
 0348 0CB                                       ?nc goto [J0204] +25 0361
 0349 0C5 050                                   ?nc call [J0206] 1431
 034B 0B0                                       c=n
 034C 101 002 [J0215]                           ?nc goto [J0207] 0040
 034E 39D 05C                                   ?nc call [J0208] 17E7
 0350 3ED 018                                   ?nc call [J0209] 06FB
 0352 2BD 000                                   ?nc call [J0210] 00AF
 0354 025 01C                                   ?nc call [J0187] 0709
 0356 1E9 018                                   ?nc call [J0211] 067A
 0358 28D 000                                   ?nc call [J0193] 00A3
 035A 2DA                                       ? b<>0  m
 035B 27B                                       ?nc goto [J0212] -49 032A
 035C 15D 01C                                   ?nc call [J0213] 0757
 035E 01D 044                                   ?nc call [J0201] 1107
 0360 328                                       wrreg 12
 0361 0F0     [J0204]                           c<>n
 0362 3A1 03C [J0484]                           ?nc call [J0214] 0FE8
 0364 0B0                                       c=n
 0365 244                                       s=0 9
 0366 333                                       ?nc goto [J0215] -26 034C
 0367 351 03C [J0473]                           ?nc call [J0216] 0FD4
 0369 01D 044 [J0465]                           ?nc call [J0201] 1107
 036B 368                                       wrreg 13
 036C 3AB                                       ?nc goto [J0204] -11 0361
 036D 1CD 040                                   ?nc call [J0217] 1073
 036F 3A9 05C                                   ?nc call [J0218] 17EA
 0371 3B8                                       rdreg 14
 0372 2FA                                       ? c<>0  m
 0373 1FD 040                                   ?nc call [J0199] 107F
 0375 01D 01C                                   ?nc call [J0219] 0707
 0377 3ED 018                                   ?nc call [J0209] 06FB
 0379 3E1 018                                   ?nc call [J0220] 06F8
 037B 1E9 018                                   ?nc call [J0211] 067A
 037D 01D 044                                   ?nc call [J0201] 1107
 037F 2BE                                       c=-c-1  s
 0380 2E8                                       wrreg 11
 0381 303                                       ?nc goto [J0204] -32 0361
 0382 013                                       ?nc goto [J0221] +2 0384
 0383 033                                       ?nc goto [J0222] +6 0389
 0384 073     [J0221]                           ?nc goto [J0223] +14 0392
 0385 0C3                                       ?nc goto [J0224] +24 039D
 0386 083                                       ?nc goto [J0225] +16 0396
 0387 082                                       b=a     p
 0388 0C2                                       c=b     p
 0389 072     [J0222]                           ab ex   pq
 038A 032                                       b=0     pq
 038B 012                                       a=0     pq
 038C 010                                       lc 0
 038D 030                                       disp blink
 038E 070                                       n=c
 038F 0C0                                       ???
 0390 080                                       ???
 0391 087                                       ?c  goto [J0226] +16 03A1
 0392 0C7     [J0223]                           ?c  goto [J0020] +24 03AA
 0393 077                                       ?c  goto [J0226] +14 03A1
 0394 037                                       ?c  goto [J0227] +6 039A
 0395 017                                       ?c  goto [J0228] +2 0397
 0396 011 031 [J0225]                           ?c  call [J0229] 0C04
 0398 071 0C1                                   ?c  call [J0230] 301C
 039A 081 084 [J0227]                           ?nc call [J0231] 2120
 039C 0C4                                       s=0 10
 039D 074     [J0224]                           ??? 1
 039E 034                                       ??? 0
 039F 014                                       ? pt= 3
 03A0 018                                       ???
 03A1 038     [J0226]                           rdreg 0
 03A2 078                                       rdreg 1
 03A3 0C8                                       s=1 10
 03A4 088                                       s=1 5
 03A5 084                                       s=0 5
 03A6 0C5 075                                   ?c  call [J0232] 1D31
 03A8 035 015                                   ?c  call [J0233] 050D
 03AA 10E     [J0020]                           a=c     w
 03AB 31C                                       pt= 1
 03AC 098                                       c=g
 03AD 056                                       c=0     xs
 03AE 3C6                                       c sr    x
 03AF 0AE                                       ac ex   w
 03B0 01E                                       a=0     s
 03B1 158                                       m=c
 03B2 35C                                       pt= 12
 03B3 05E                                       c=0     s
 03B4 3D4     [J0234]                           dec pt
 03B5 1A6                                       a=a-1   x
 03B6 3F3                                       ?nc goto [J0234] -2 03B4
 03B7 314                                       ? pt= 1
 03B8 067                                       ?c  goto [J0235] +12 03C4
 03B9 2F6                                       ? c<>0  xs
 03BA 0C7                                       ?c  goto [J0236] +24 03D2
 03BB 266     [J0240]                           c=c-1   x
 03BC 01B                                       ?nc goto [J0237] +3 03BF
 03BD 006                                       a=0     x
 03BE 0C3                                       ?nc goto [J0238] +24 03D6
 03BF 214     [J0237]                           ? pt= 2
 03C0 017                                       ?c  goto [J0239] +2 03C2
 03C1 3D4                                       dec pt
 03C2 23E     [J0239]                           c=c+1   s
 03C3 3C3                                       ?nc goto [J0240] -8 03BB
 03C4 198     [J0235]                           c=m
 03C5 05E                                       c=0     s
 03C6 31C                                       pt= 1
 03C7 2F6     [J0248]                           ? c<>0  xs
 03C8 013                                       ?nc goto [J0241] +2 03CA
 03C9 28A                                       c=-c    wp
 03CA 09C     [J0241]                           pt= 5
 03CB 10E                                       a=c     w
 03CC 3EA                                       a sl    wp
 03CD 3EA                                       a sl    wp
 03CE 3EA                                       a sl    wp
 03CF 108                                       s=1 8
 03D0 21C                                       pt= 2
 03D1 093     [J0250]                           ?nc goto [J0242] +18 03E3
 03D2 006     [J0236]                           a=0     x
 03D3 38E     [J0243]                           a sr    w
 03D4 226                                       c=c+1   x
 03D5 3F3                                       ?nc goto [J0243] -2 03D3
 03D6 02E     [J0238]                           b=0     w
 03D7 08A                                       b=a     wp
 03D8 06E     [J0249]                           ab ex   w
 03D9 12E                                       a=a+b   w
 03DA 35A                                       ? a<>0  m
 03DB 05F                                       ?c  goto [J0244] +11 03E6
 03DC 35E                                       ? a<>0  s
 03DD 04F                                       ?c  goto [J0244] +9 03E6
 03DE 2FA                                       ? c<>0  m
 03DF 32F                                       ?c  goto [J0235] -27 03C4
 03E0 35E     [J0246]                           ? a<>0  s
 03E1 05F                                       ?c  goto [J0245] +11 03EC
 03E2 11E     [J0247]                           a=c     s
 03E3 260     [J0242]                           set hex
 03E4 1AA                                       a=a-1   wp
 03E5 3E0                                       rtn

 03E6 00A     [J0244]                           a=0     wp
 03E7 34E                                       ? a<>0  w
 03E8 3C7                                       ?c  goto [J0246] -8 03E0
 03E9 3D4                                       dec pt
 03EA 06E                                       ab ex   w
 03EB 35B                                       ?nc goto [J0238] -21 03D6
 03EC 23E     [J0245]                           c=c+1   s
 03ED 3D4                                       dec pt
 03EE 38E                                       a sr    w
 03EF 39B                                       ?nc goto [J0247] -13 03E2
 03F0 1BC                                       ? rcr 11
 03F1 088     [J0265]                           s=1 5
 03F2 1E4                                       selprf 7
 03F3 1E8                                       wrreg 7
 03F4 0D8                                       c<>g
 03F5 178     [J0262]                           rdreg 5
 03F6 17C                                       ? rcr 6
 03F7 0A8                                       wrreg 2
 03F8 1FC                                       ? rcr -1
 03F9 1F8                                       rdreg 7
 03FA 044                                       s=0 4
 03FB 040                                       wrrom
 03FC 14C                                       ? s=0 6
 03FD 0F4                                       ??? 3
 03FE 174                                       ??? 5
 03FF 282                                       c=-c    p
 0400 23F                                       ?c  goto [J0248] -57 03C7
 0401 048                                       s=1 4
 0402 2B3                                       ?nc goto [J0249] -42 03D8
 0403 026                                       b=0     x
 0404 26B                                       ?nc goto [J0250] -51 03D1
 0405 016                                       a=0     xs
 0406 1FD 031                                   ?c  call [J0251] 0C7F
 0408 069 035                                   ?c  call [J0252] 0D1A
 040A 2A9 034                                   ?nc call [J0253] 0DAA
 040C 2E8                                       wrreg 11
 040D 011 349                                   ?c  call [J0254] D204
 040F 012                                       a=0     pq
 0410 346                                       ? a<>0  x
 0411 013                                       ?nc goto [J0255] +2 0413
 0412 34E                                       ? a<>0  w
 0413 014     [J0255]                           ? pt= 3
 0414 36D 015                                   ?c  call [J0256] 05DB
 0416 219 021                                   ?c  call [J0257] 0886
 0418 351 022                                   ?nc goto [J0258] 08D4
 041A 364     [J0271]                           selprf 13
 041B 023                                       ?nc goto [J0259] +4 041F
 041C 371 024                                   ?nc call [J0260] 09DC
 041E 31D 025                                   ?c  call [J0261] 09C7
 0420 15E                                       a=a+c   s
 0421 148                                       s=1 6
 0422 31A                                       ? a<c   m
 0423 020                                       pop
 0424 28B                                       ?nc goto [J0262] -47 03F5
 0425 030                                       disp blink
 0426 36A                                       ? a<>c  wp
 0427 010                                       lc 0
 0428 28D 040                                   ?nc call [J0263] 10A3
 042A 177                                       ?c  goto [J0264] +46 0458
 042B 134                                       ??? 4
 042C 22F                                       ?c  goto [J0265] -59 03F1
 042D 111 289                                   ?c  call [J0266] A244
 042F 112                                       a=c     pq
 0430 0E1 113                                   ?c  goto [J0267] 4438
 0432 2B6                                       c=-c-1  xs
 0433 114                                       ? pt= 8
 0434 000                                       nop
 0435 115 307                                   ?c  goto [J0268] C145
 0437 121 309                                   ?c  call [J0269] C248
 0439 122                                       a=a+b   p
 043A 2E5 123                                   ?c  goto [J0270] 48B9
 043C 2E4                                       selprf 11
 043D 124                                       selprf 4
 043E 2E3                                       ?nc goto [J0271] -36 041A
 043F 125 29A                                   ?nc goto [J0272] A649
 0441 248                                       s=1 9
 0442 064                                       selprf 1
 0443 226                                       c=c+1   x
 0444 071 216                                   ?nc goto [J0273] 851C
 0446 194                                       ? pt= 11
 0447 231 1A6                                   ?nc goto [J0274] 698C
 0449 235 19F                                   ?c  goto [J0275] 678D
 044B 234                                       ??? 8
 044C 1AE                                       a=a-1   w
 044D 211 1B5                                   ?c  call [J0276] 6D84
 044F 212                                       c=a+c   pq
 0450 1AC                                       ? ext 11
 0451 213                                       ?nc goto [J0255] -62 0413
 0452 1BC                                       ? rcr 11
 0453 214                                       ? pt= 2
 0454 1D0                                       lc 7
 0455 215 1F3                                   ?c  goto [J0277] 7C85
 0457 221 122                                   ?nc goto [J0278] 4888
 0459 222                                       c=c+1   p
 045A 275 223                                   ?c  goto [J0279] 889D
 045C 06F                                       ?c  goto [J0280] +13 0469
 045D 224                                       selprf 8
 045E 076                                       ab ex   xs
 045F 225 008                                   ?nc call [J0281] 0289
 0461 2F0                                       data=c
 0462 024                                       selprf 0
 0463 2F1 039                                   ?c  call [J0282] 0EBC
 0465 2F2                                       ? c<>0  pq
 0466 22C                                       ? ext 2
 0467 2F3                                       ?nc goto [J0283] -34 0445
 0468 004                                       s=0 3
 0469 036     [J0280]                           b=0     xs
 046A 000                                       nop
 046B 236                                       c=c+1   xs
 046C 01A                                       a=0     m
 046D 2F6                                       ? c<>0  xs
 046E 235 2F7                                   ?c  goto [J0284] BD8D
 0470 238                                       rdreg 8
 0471 2F8                                       rdreg 11
 0472 268                                       wrreg 9
 0473 312                                       ? a<c   pq
 0474 27C                                       ? rcr 9
 0475 314                                       ? pt= 1
 0476 3E0                                       rtn

 0477 331 257                                   ?c  goto [J0285] 95CC
 0479 033                                       ?nc goto [J0286] +6 047F
 047A 26E                                       c=c-1   w
 047B 132                                       a=a+b   pq
 047C 25D 315                                   ?c  call [J0287] C597
 047E 263                                       ?nc goto [J0288] -52 044A
 047F 311 1F8 [J0286]                           ?nc call [J0289] 7EC4
 0481 249 1F9                                   ?c  call [J0290] 7E92
 0483 049 388                                   ?nc call [J0291] E212
 0485 0AE                                       ac ex   w
 0486 1D8                                       c<>m
 0487 2C4                                       s=0 13
 0488 2F5 01C                                   ?nc call [J0143] 07BD
 048A 3F1 03C                                   ?nc call [J0144] 0FFC
 048C 04E                                       c=0     w
 048D 27A                                       c=c-1   m
 048E 18C                                       ? s=0 11
 048F 3BD 017                                   ?c  goto [J0292] 05EF
 0491 260     [J0145]                           set hex
 0492 016                                       a=0     xs
 0493 04E                                       c=0     w
 0494 27A                                       c=c-1   m
 0495 25C                                       pt= 9
 0496 110                                       lc 4
 0497 110                                       lc 4
 0498 31C                                       pt= 1
 0499 290                                       lc 10
 049A 306                                       ? a<c   x
 049B 145 017                                   ?c  goto [J0293] 0551
 049D 1C6                                       a=a-c   x
 049E 38C                                       ? s=0 0
 049F 077                                       ?c  goto [J0294] +14 04AD
 04A0 130 00B                                   ldi 00B
 04A2 306                                       ? a<c   x
 04A3 053                                       ?nc goto [J0294] +10 04AD
 04A4 130 006                                   ldi 006
 04A6 306                                       ? a<c   x
 04A7 037                                       ?c  goto [J0294] +6 04AD
 04A8 30C                                       ? s=0 1
 04A9 3F5 012                                   ?nc goto [J0295] 04FD
 04AB 2CD 040                                   ?nc call [J0133] 10B3
 04AD 130 042 [J0294]                           ldi 042
 04AF 306                                       ? a<c   x
 04B0 18B                                       ?nc goto [J0296] +49 04E1
 04B1 08E                                       b=a     w
 04B2 04E                                       c=0     w
 04B3 01A                                       a=0     m
 04B4 09C                                       pt= 5
 04B5 110                                       lc 4
 04B6 130 00B                                   ldi 00B
 04B8 1C6     [J0298]                           a=a-c   x
 04B9 01F                                       ?c  goto [J0297] +3 04BC
 04BA 15A                                       a=a+c   m
 04BB 3EB                                       ?nc goto [J0298] -3 04B8
 04BC 04E     [J0297]                           c=0     w
 04BD 21C                                       pt= 2
 04BE 110                                       lc 4
 04BF 0CA                                       c=b     wp
 04C0 1EA                                       c=c+c   wp
 04C1 38C                                       ? s=0 0
 04C2 349 017                                   ?c  goto [J0299] 05D2
 04C4 1BC                                       ? rcr 11
 04C5 330                                       cxisa
 04C6 106                                       a=c     x
 04C7 04E                                       c=0     w
 04C8 130 039                                   ldi 039
 04CA 1BC                                       ? rcr 11
 04CB 170                                       push c
 04CC 05A                                       c=0     m
 04CD 0A6                                       ac ex   x
 04CE 1BC                                       ? rcr 11
 04CF 21A                                       c=a+c   m
 04D0 170                                       push c
 04D1 130 003                                   ldi 003
 04D3 06E                                       ab ex   w
 04D4 306                                       ? a<c   x
 04D5 01F                                       ?c  goto [J0300] +3 04D8
 04D6 395 01C                                   ?nc call [J0017] 07E5
 04D8 0B0     [J0300]                           c=n
 04D9 2A0                                       set dec
 04DA 3E0                                       rtn

 04DB 0A6     [J0316]                           ac ex   x
 04DC 0C1 038                                   ?nc call [J0301] 0E30
 04DE 038                                       rdreg 0
 04DF 0AE                                       ac ex   w
 04E0 3C3                                       ?nc goto [J0300] -8 04D8
 04E1 31C     [J0296]                           pt= 1
 04E2 130 042                                   ldi 042
 04E4 1CA                                       a=a-c   wp
 04E5 130 005                                   ldi 005
 04E7 1CA                                       a=a-c   wp
 04E8 05B                                       ?nc goto [J0302] +11 04F3
 04E9 14A                                       a=a+c   wp
 04EA 38C                                       ? s=0 0
 04EB 023                                       ?nc goto [J0303] +4 04EF
 04EC 11C                                       pt= 8
 04ED 222                                       c=c+1   p
 04EE 053                                       ?nc goto [J0304] +10 04F8
 04EF 0F5 038 [J0303]                           ?nc call [J0305] 0E3D
 04F1 1C1 016                                   ?nc goto [J0306] 0570
 04F3 1CA     [J0302]                           a=a-c   wp
 04F4 0B3                                       ?nc goto [J0307] +22 050A
 04F5 14A                                       a=a+c   wp
 04F6 38C                                       ? s=0 0
 04F7 03B                                       ?nc goto [J0308] +7 04FE
 04F8 0BC     [J0304]                           ? rcr 5
 04F9 31C                                       pt= 1
 04FA 050                                       lc 1
 04FB 050                                       lc 1
 04FC 103                                       ?nc goto [J0309] +32 051C
 04FD 1C6     [J0295]                           a=a-c   x
 04FE 0F5 038 [J0308]                           ?nc call [J0305] 0E3D
 0500 0B0                                       c=n
 0501 248     [J0598]                           s=1 9
 0502 308                                       s=1 1
 0503 02D 044 [J0338]                           ?nc call [J0018] 110B
 0505 0D4                                       ? pt= 10
 0506 13F                                       ?c  goto [J0310] +39 052D
 0507 2F0                                       data=c
 0508 101 002                                   ?nc goto [J0207] 0040
 050A 1CA     [J0307]                           a=a-c   wp
 050B 03B                                       ?nc goto [J0311] +7 0512
 050C 14A                                       a=a+c   wp
 050D 38C     [J0233]                           ? s=0 0
 050E 0B3                                       ?nc goto [J0312] +22 0524
 050F 15C                                       pt= 6
 0510 110                                       lc 4
 0511 043                                       ?nc goto [J0313] +8 0519
 0512 1CA     [J0311]                           a=a-c   wp
 0513 0EB                                       ?nc goto [J0314] +29 0530
 0514 14A                                       a=a+c   wp
 0515 38C                                       ? s=0 0
 0516 053                                       ?nc goto [J0315] +10 0520
 0517 15C                                       pt= 6
 0518 0D0                                       lc 3
 0519 03C     [J0313]                           ? rcr 3
 051A 130 0F0                                   ldi 0F0
 051C 206     [J0309]                           c=a+c   x
 051D 1BC                                       ? rcr 11
 051E 3BD 016                                   ?nc goto [J0292] 05EF
 0520 36D 010 [J0315]                           ?nc call [J0316] 04DB
 0522 2BE                                       c=-c-1  s
 0523 01F                                       ?c  goto [J0317] +3 0526
 0524 36D 010 [J0312]                           ?nc call [J0316] 04DB
 0526 23D 018 [J0317]                           ?nc call [J0202] 068F
 0528 02D 044 [J0322]                           ?nc call [J0018] 110B
 052A 0D4                                       ? pt= 10
 052B 3B1 036                                   ?nc goto [J0318] 0DEC
 052D 31C     [J0310]                           pt= 1
 052E 2CD 04E                                   ?nc goto [J0087] 13B3
 0530 1CA     [J0314]                           a=a-c   wp
 0531 063                                       ?nc goto [J0319] +12 053D
 0532 14A                                       a=a+c   wp
 0533 38C                                       ? s=0 0
 0534 023                                       ?nc goto [J0320] +4 0538
 0535 15C                                       pt= 6
 0536 090                                       lc 2
 0537 313                                       ?nc goto [J0313] -30 0519
 0538 36D 010 [J0320]                           ?nc call [J0316] 04DB
 053A 085 01C                                   ?nc call [J0321] 0721
 053C 363                                       ?nc goto [J0322] -20 0528
 053D 38C     [J0319]                           ? s=0 0
 053E 023                                       ?nc goto [J0323] +4 0542
 053F 15C                                       pt= 6
 0540 050                                       lc 1
 0541 2C3                                       ?nc goto [J0313] -40 0519
 0542 36D 010 [J0323]                           ?nc call [J0316] 04DB
 0544 1B9 01C                                   ?nc call [J0324] 076E
 0546 313                                       ?nc goto [J0322] -30 0528
 0547 38C     [J0327]                           ? s=0 0
 0548 1FD 00A                                   ?nc goto [J0325] 027F
 054A 04E                                       c=0     w
 054B 26E                                       c=c-1   w
 054C 0EF                                       ?c  goto [J0326] +29 0569
 054D 11C     [J0329]                           pt= 8
 054E 090                                       lc 2
 054F 0BC                                       ? rcr 5
 0550 0CB                                       ?nc goto [J0326] +25 0569
 0551 0A6     [J0293]                           ac ex   x
 0552 106                                       a=c     x
 0553 162                                       a=a+1   p
 0554 39F                                       ?c  goto [J0327] -13 0547
 0555 162                                       a=a+1   p
 0556 063                                       ?nc goto [J0328] +12 0562
 0557 38C                                       ? s=0 0
 0558 3AF                                       ?c  goto [J0329] -11 054D
 0559 31C     [J0331]                           pt= 1
 055A 098                                       c=g
 055B 0A2                                       ac ex   p
 055C 058                                       g=c
 055D 0F3                                       ?nc goto [J0330] +30 057B
 055E 31C                                       pt= 1
 055F 290                                       lc 10
 0560 106                                       a=c     x
 0561 3C3                                       ?nc goto [J0331] -8 0559
 0562 162     [J0328]                           a=a+1   p
 0563 0D3                                       ?nc goto [J0332] +26 057D
 0564 38C                                       ? s=0 0
 0565 04B                                       ?nc goto [J0333] +9 056E
 0566 11C                                       pt= 8
 0567 150                                       lc 5
 0568 0BC     [J0337]                           ? rcr 5
 0569 31C     [J0326]                           pt= 1
 056A 0A2                                       ac ex   p
 056B 37C                                       ? rcr 12
 056C 3BD 016 [J0346]                           ?nc goto [J0292] 05EF
 056E 0B9 038 [J0333]                           ?nc call [J0334] 0E2E
 0570 038     [J0306]                           rdreg 0
 0571 0F0     [J0673]                           c<>n
 0572 3A1 03C                                   ?nc call [J0214] 0FE8
 0574 0B0     [J0494]                           c=n
 0575 0F9 002                                   ?nc goto [J0171] 003E
 0577 130 0EB                                   ldi 0EB
 0579 37D 03C                                   ?nc call [J0335] 0FDF
 057B 195 002 [J0330]                           ?nc goto [J0057] 0065
 057D 162     [J0332]                           a=a+1   p
 057E 053                                       ?nc goto [J0336] +10 0588
 057F 38C                                       ? s=0 0
 0580 347                                       ?c  goto [J0337] -24 0568
 0581 0B9 038                                   ?nc call [J0334] 0E2E
 0583 0B0     [J0344]                           c=n
 0584 244                                       s=0 9
 0585 304                                       s=0 1
 0586 00D 016                                   ?nc goto [J0338] 0503
 0588 162     [J0336]                           a=a+1   p
 0589 06B                                       ?nc goto [J0339] +13 0596
 058A 38C                                       ? s=0 0
 058B 043                                       ?nc goto [J0340] +8 0593
 058C 11C                                       pt= 8
 058D 150                                       lc 5
 058E 3D0                                       lc 15
 058F 110     [J0343]                           lc 4
 0590 210                                       lc 8
 0591 23C                                       ? rcr 2
 0592 2BB                                       ?nc goto [J0326] -41 0569
 0593 075 038 [J0340]                           ?nc call [J0341] 0E1D
 0595 2DB                                       ?nc goto [J0306] -37 0570
 0596 162     [J0339]                           a=a+1   p
 0597 03B                                       ?nc goto [J0342] +7 059E
 0598 15C                                       pt= 6
 0599 38C                                       ? s=0 0
 059A 3AF                                       ?c  goto [J0343] -11 058F
 059B 075 038                                   ?nc call [J0341] 0E1D
 059D 333                                       ?nc goto [J0344] -26 0583
 059E 38C     [J0342]                           ? s=0 0
 059F 04B                                       ?nc goto [J0345] +9 05A8
 05A0 15C                                       pt= 6
 05A1 110                                       lc 4
 05A2 0D0                                       lc 3
 05A3 0D0                                       lc 3
 05A4 0D0                                       lc 3
 05A5 3D0                                       lc 15
 05A6 1BC                                       ? rcr 11
 05A7 22B                                       ?nc goto [J0346] -59 056C
 05A8 0A6     [J0345]                           ac ex   x
 05A9 130 007 [J0099]                           ldi 007
 05AB 0E6                                       bc ex   x
 05AC 31C                                       pt= 1
 05AD 3B8                                       rdreg 14
 05AE 04A                                       c=0     wp
 05AF 2A0                                       set dec
 05B0 1A6                                       a=a-1   x
 05B1 023                                       ?nc goto [J0347] +4 05B5
 05B2 204                                       s=0 2
 05B3 3A8     [J0349]                           wrreg 14
 05B4 23B                                       ?nc goto [J0330] -57 057B
 05B5 20C     [J0347]                           ? s=0 2
 05B6 01B                                       ?nc goto [J0348] +3 05B9
 05B7 1A6                                       a=a-1   x
 05B8 3DF                                       ?c  goto [J0349] -5 05B3
 05B9 1A6     [J0348]                           a=a-1   x
 05BA 023                                       ?nc goto [J0350] +4 05BE
 05BB 190                                       lc 6
 05BC 3D0                                       lc 15
 05BD 3B3                                       ?nc goto [J0349] -10 05B3
 05BE 260     [J0350]                           set hex
 05BF 26A                                       c=c-1   wp
 05C0 260     [J0351]                           set hex
 05C1 266                                       c=c-1   x
 05C2 2A0                                       set dec
 05C3 18A                                       a=a-b   wp
 05C4 3E3                                       ?nc goto [J0351] -4 05C0
 05C5 12A                                       a=a+b   wp
 05C6 3E6                                       a sl    x
 05C7 0A2                                       ac ex   p
 05C8 106                                       a=c     x
 05C9 3E6                                       a sl    x
 05CA 3E6                                       a sl    x
 05CB 260                                       set hex
 05CC 0B6                                       ac ex   xs
 05CD 316                                       ? a<c   xs
 05CE 0F1 00A                                   ?nc goto [J0352] 023C
 05D0 0B6                                       ac ex   xs
 05D1 313                                       ?nc goto [J0349] -30 05B3
 05D2 226     [J0299]                           c=c+1   x
 05D3 1BC                                       ? rcr 11
 05D4 330                                       cxisa
 05D5 29C                                       pt= 7
 05D6 116                                       a=c     xs
 05D7 2FC                                       ? rcr 13
 05D8 05A                                       c=0     m
 05D9 27A                                       c=c-1   m
 05DA 37C                                       ? rcr 12
 05DB 0A6     [J0256]                           ac ex   x
 05DC 1F6                                       c=c+c   xs
 05DD 1F6                                       c=c+c   xs
 05DE 1F6                                       c=c+c   xs
 05DF 037                                       ?c  goto [J0353] +6 05E5
 05E0 1F6                                       c=c+c   xs
 05E1 073                                       ?nc goto [J0292] +14 05EF
 05E2 110                                       lc 4
 05E3 090                                       lc 2
 05E4 05B                                       ?nc goto [J0292] +11 05EF
 05E5 1F6     [J0353]                           c=c+c   xs
 05E6 033                                       ?nc goto [J0354] +6 05EC
 05E7 0A6                                       ac ex   x
 05E8 25C                                       pt= 9
 05E9 110                                       lc 4
 05EA 150                                       lc 5
 05EB 013                                       ?nc goto [J0355] +2 05ED
 05EC 0A6     [J0354]                           ac ex   x
 05ED 110     [J0355]                           lc 4
 05EE 0D0                                       lc 3
 05EF 10E     [J0292]                           a=c     w
 05F0 046                                       c=0     x
 05F1 39C                                       pt= 0
 05F2 1D0                                       lc 7
 05F3 0EE                                       bc ex   w
 05F4 3B8                                       rdreg 14
 05F5 006                                       a=0     x
 05F6 31C                                       pt= 1
 05F7 2EA                                       ? c<>0  wp
 05F8 08B                                       ?nc goto [J0356] +17 0609
 05F9 39C                                       pt= 0
 05FA 222                                       c=c+1   p
 05FB 06F                                       ?c  goto [J0357] +13 0608
 05FC 31C                                       pt= 1
 05FD 0A2                                       ac ex   p
 05FE 386                                       a sr    x
 05FF 166                                       a=a+1   x
 0600 39C                                       pt= 0
 0601 023                                       ?nc goto [J0358] +4 0605
 0602 2A0     [J0359]                           set dec
 0603 126                                       a=a+b   x
 0604 260                                       set hex
 0605 222     [J0358]                           c=c+1   p
 0606 3E3                                       ?nc goto [J0359] -4 0602
 0607 2A0                                       set dec
 0608 166     [J0357]                           a=a+1   x
 0609 0A6     [J0356]                           ac ex   x
 060A 03C                                       ? rcr 3
 060B 2DC                                       pt= 13
 060C 3D0                                       lc 15
 060D 0DC                                       pt= 10
 060E 0AA                                       ac ex   wp
 060F 2D0                                       lc 11
 0610 10E                                       a=c     w
 0611 222                                       c=c+1   p
 0612 360                                       ?c rtn
 0613 260                                       set hex
 0614 29C                                       pt= 7
 0615 222                                       c=c+1   p
 0616 360                                       ?c rtn
 0617 1BE                                       a=a-1   s
 0618 3E0                                       rtn

 0619 379 028                                   ?nc call [J0184] 0ADE
 061B 35D 04C                                   ?nc call [J0047] 13D7
 061D 339 040                                   ?nc call [J0360] 10CE
 061F 10E                                       a=c     w
 0620 0B0                                       c=n
 0621 35E                                       ? a<>0  s
 0622 0BB                                       ?nc goto [J0361] +23 0639
 0623 006                                       a=0     x
 0624 0BA                                       ac ex   m
 0625 2F6                                       ? c<>0  xs
 0626 033                                       ?nc goto [J0362] +6 062C
 0627 3DD 036 [J0364]                           ?nc goto [J0363] 0DF7
 0629 2E6     [J0365]                           ? c<>0  x
 062A 3EB                                       ?nc goto [J0364] -3 0627
 062B 266                                       c=c-1   x
 062C 3EE     [J0362]                           a sl    w
 062D 35A                                       ? a<>0  m
 062E 3DF                                       ?c  goto [J0365] -5 0629
 062F 2E6                                       ? c<>0  x
 0630 04F                                       ?c  goto [J0361] +9 0639
 0631 0BE                                       ac ex   s
 0632 11E                                       a=c     s
 0633 1FE                                       c=c+c   s
 0634 1FE                                       c=c+c   s
 0635 21E                                       c=a+c   s
 0636 2FE                                       ? c<>0  s
 0637 013                                       ?nc goto [J0361] +2 0639
 0638 288                                       s=1 7
 0639 339 040 [J0361]                           ?nc call [J0360] 10CE
 063B 05E                                       c=0     s
 063C 195 048                                   ?nc call [J0366] 1265
 063E 0EE     [J0375]                           bc ex   w
 063F 04E                                       c=0     w
 0640 270                                       sel ram
 0641 038                                       rdreg 0
 0642 10E                                       a=c     w
 0643 078                                       rdreg 1
 0644 028                                       wrreg 0
 0645 0B8                                       rdreg 2
 0646 068                                       wrreg 1
 0647 0EE                                       bc ex   w
 0648 3E0                                       rtn

 0649 349 040 [J0498]                           ?nc call [J0182] 10D2
 064B 0F8                                       rdreg 3
 064C 279 01C                                   ?nc call [J0367] 079E
 064E 35D 04C                                   ?nc call [J0047] 13D7
 0650 235 040                                   ?nc call [J0368] 108D
 0652 138                                       rdreg 4
 0653 12B                                       ?nc goto [J0369] +37 0678
 0654 349 040 [J0674]                           ?nc call [J0182] 10D2
 0656 078                                       rdreg 1
 0657 0AE                                       ac ex   w
 0658 0F8                                       rdreg 3
 0659 27D 01C                                   ?nc call [J0370] 079F
 065B 35D 04C                                   ?nc call [J0047] 13D7
 065D 235 040                                   ?nc call [J0368] 108D
 065F 178                                       rdreg 5
 0660 0C3                                       ?nc goto [J0369] +24 0678
 0661 349 040 [J0666]                           ?nc call [J0182] 10D2
 0663 2F8                                       rdreg 11
 0664 2BE                                       c=-c-1  s
 0665 10E     [J0183]                           a=c     w
 0666 378     [J0491]                           rdreg 13
 0667 143                                       ?nc goto [J0202] +40 068F
 0668 349 040 [J0496]                           ?nc call [J0182] 10D2
 066A 379 028 [J0429]                           ?nc call [J0184] 0ADE
 066C 0D3                                       ?nc goto [J0371] +26 0686
 066D 349 040 [J0497]                           ?nc call [J0182] 10D2
 066F 078                                       rdreg 1
 0670 279 01C                                   ?nc call [J0367] 079E
 0672 35D 04C                                   ?nc call [J0047] 13D7
 0674 349 040                                   ?nc call [J0182] 10D2
 0676 10E                                       a=c     w
 0677 0B8                                       rdreg 2
 0678 085 01C [J0369]                           ?nc call [J0321] 0721
 067A 049 048 [J0211]                           ?nc call [J0372] 1212
 067C 0BB                                       ?nc goto [J0189] +23 0693
 067D 219 050 [J0448]                           ?nc call [J0186] 1486
 067F 01B                                       ?nc goto [J0373] +3 0682
 0680 1CD 040 [J0663]                           ?nc call [J0217] 1073
 0682 379 028 [J0373]                           ?nc call [J0184] 0ADE
 0684 04E     [J0664]                           c=0     w
 0685 01B                                       ?nc goto [J0374] +3 0688
 0686 04E     [J0371]                           c=0     w
 0687 2BE                                       c=-c-1  s
 0688 35C     [J0374]                           pt= 12
 0689 050                                       lc 1
 068A 03B                                       ?nc goto [J0029] +7 0691
 068B 2BE                                       c=-c-1  s
 068C 000                                       nop
 068D 0F9 018                                   ?nc call [J0375] 063E
 068F 02E     [J0202]                           b=0     w
 0690 07A                                       ab ex   m
 0691 158     [J0029]                           m=c
 0692 046                                       c=0     x
 0693 03E     [J0189]                           b=0     s
 0694 05E                                       c=0     s
 0695 1D8                                       c<>m
 0696 31C                                       pt= 1
 0697 3D4     [J0376]                           dec pt
 0698 176                                       a=a+1   xs
 0699 236                                       c=c+1   xs
 069A 354                                       ? pt= 12
 069B 3E3                                       ?nc goto [J0376] -4 0697
 069C 0EE                                       bc ex   w
 069D 2EE                                       ? c<>0  w
 069E 16B                                       ?nc goto [J0377] +45 06CB
 069F 1D8                                       c<>m
 06A0 06E                                       ab ex   w
 06A1 2EE                                       ? c<>0  w
 06A2 14B                                       ?nc goto [J0377] +41 06CB
 06A3 326     [J0379]                           ? a<b   x
 06A4 087                                       ?c  goto [J0378] +16 06B4
 06A5 1D8                                       c<>m
 06A6 06E                                       ab ex   w
 06A7 326                                       ? a<b   x
 06A8 3DF                                       ?c  goto [J0379] -5 06A3
 06A9 0AE                                       ac ex   w
 06AA 1D8                                       c<>m
 06AB 30E                                       ? a<c   w
 06AC 023                                       ?nc goto [J0380] +4 06B0
 06AD 1D8                                       c<>m
 06AE 0AE                                       ac ex   w
 06AF 02B                                       ?nc goto [J0378] +5 06B4
 06B0 1D8     [J0380]                           c<>m
 06B1 0AE                                       ac ex   w
 06B2 1D8                                       c<>m
 06B3 06E                                       ab ex   w
 06B4 19E     [J0378]                           a=a-b   s
 06B5 35E                                       ? a<>0  s
 06B6 05B                                       ?nc goto [J0381] +11 06C1
 06B7 28E                                       c=-c    w
 06B8 11E                                       a=c     s
 06B9 326                                       ? a<b   x
 06BA 03B                                       ?nc goto [J0381] +7 06C1
 06BB 1D8                                       c<>m
 06BC 2FC                                       ? rcr 13
 06BD 1D8                                       c<>m
 06BE 06E                                       ab ex   w
 06BF 1A6                                       a=a-1   x
 06C0 06E                                       ab ex   w
 06C1 326     [J0381]                           ? a<b   x
 06C2 04B                                       ?nc goto [J0377] +9 06CB
 06C3 166                                       a=a+1   x
 06C4 3CE                                       c sr    w
 06C5 0BE                                       ac ex   s
 06C6 11E                                       a=c     s
 06C7 3D4                                       dec pt
 06C8 2D4                                       ? pt= 13
 06C9 3C3                                       ?nc goto [J0381] -8 06C1
 06CA 04E                                       c=0     w
 06CB 0AE     [J0377]                           ac ex   w
 06CC 198                                       c=m
 06CD 0EE                                       bc ex   w
 06CE 12E                                       a=a+b   w
 06CF 276                                       c=c-1   xs
 06D0 276                                       c=c-1   xs
 06D1 276                                       c=c-1   xs
 06D2 0AE     [J0395]                           ac ex   w
 06D3 158                                       m=c
 06D4 198                                       c=m
 06D5 2FE                                       ? c<>0  s
 06D6 01B                                       ?nc goto [J0382] +3 06D9
 06D7 166                                       a=a+1   x
 06D8 3CE                                       c sr    w
 06D9 0AE     [J0382]                           ac ex   w
 06DA 35C     [J0577]                           pt= 12
 06DB 34A                                       ? a<>0  wp
 06DC 0BF                                       ?c  goto [J0383] +23 06F3
 06DD 0EE     [J0387]                           bc ex   w
 06DE 0AE     [J0386]                           ac ex   w
 06DF 35C     [J0615]                           pt= 12
 06E0 10E                                       a=c     w
 06E1 1E6                                       c=c+c   x
 06E2 06B                                       ?nc goto [J0384] +13 06EF
 06E3 23A                                       c=c+1   m
 06E4 05B                                       ?nc goto [J0384] +11 06EF
 06E5 0C6                                       c=b     x
 06E6 226                                       c=c+1   x
 06E7 222                                       c=c+1   p
 06E8 0DE     [J0385]                           c=b     s
 06E9 06E                                       ab ex   w
 06EA 2FA                                       ? c<>0  m
 06EB 360                                       ?c rtn
 06EC 04E                                       c=0     w
 06ED 01E                                       a=0     s
 06EE 3E0                                       rtn

 06EF 0C6     [J0384]                           c=b     x
 06F0 3C3                                       ?nc goto [J0385] -8 06E8
 06F1 06E     [J0714]                           ab ex   w
 06F2 363                                       ?nc goto [J0386] -20 06DE
 06F3 342     [J0383]                           ? a<>0  p
 06F4 34F                                       ?c  goto [J0387] -23 06DD
 06F5 266                                       c=c-1   x
 06F6 3EA                                       a sl    wp
 06F7 3E3                                       ?nc goto [J0383] -4 06F3
 06F8 2A9 000 [J0220]                           ?nc call [J0188] 00AA
 06FA 15B                                       ?nc goto [J0195] +43 0725
 06FB 359 054 [J0209]                           ?nc call [J0185] 15D6
 06FD 35D 04C                                   ?nc call [J0047] 13D7
 06FF 311 054                                   ?nc call [J0388] 15C4
 0701 349 040 [J0198]                           ?nc call [J0182] 10D2
 0703 378     [J0686]                           rdreg 13
 0704 0FB                                       ?nc goto [J0389] +31 0723
 0705 349 040 [J0802]                           ?nc call [J0182] 10D2
 0707 338     [J0219]                           rdreg 12
 0708 0DB                                       ?nc goto [J0389] +27 0723
 0709 349 040 [J0187]                           ?nc call [J0182] 10D2
 070B 2F8     [J0527]                           rdreg 11
 070C 0BB                                       ?nc goto [J0389] +23 0723
 070D 198     [J0439]                           c=m
 070E 09B                                       ?nc goto [J0321] +19 0721
 070F 0B0     [J0665]                           c=n
 0710 09B                                       ?nc goto [J0389] +19 0723
 0711 0AE     [J0437]                           ac ex   w
 0712 02E     [J0526]                           b=0     w
 0713 0FA                                       bc ex   m
 0714 10E     [J0834]                           a=c     w
 0715 04E     [J0440]                           c=0     w
 0716 35C                                       pt= 12
 0717 150                                       lc 5
 0718 266                                       c=c-1   x
 0719 057                                       ?c  goto [J0389] +10 0723
 071A 0F9 018                                   ?nc call [J0375] 063E
 071C 02B                                       ?nc goto [J0321] +5 0721
 071D 275 000                                   ?nc call [J0390] 009D
 071F 266                                       c=c-1   x
 0720 266                                       c=c-1   x
 0721 02E     [J0321]                           b=0     w
 0722 07A                                       ab ex   m
 0723 158     [J0389]                           m=c
 0724 046                                       c=0     x
 0725 03E     [J0195]                           b=0     s
 0726 05E                                       c=0     s
 0727 1D8                                       c<>m
 0728 206                                       c=a+c   x
 0729 25E                                       c=a-c   s
 072A 013                                       ?nc goto [J0391] +2 072C
 072B 29E                                       c=-c    s
 072C 00E     [J0391]                           a=0     w
 072D 1D8                                       c<>m
 072E 2DC                                       pt= 13
 072F 3DC     [J0394]                           inc pt
 0730 38E                                       a sr    w
 0731 013                                       ?nc goto [J0392] +2 0733
 0732 12E     [J0393]                           a=a+b   w
 0733 262     [J0392]                           c=c-1   p
 0734 3F3                                       ?nc goto [J0393] -2 0732
 0735 354                                       ? pt= 12
 0736 3CB                                       ?nc goto [J0394] -7 072F
 0737 198                                       c=m
 0738 349 01A                                   ?nc goto [J0395] 06D2
 073A 0AE     [J0599]                           ac ex   w
 073B 19B                                       ?nc goto [J0324] +51 076E
 073C 2BE     [J0725]                           c=-c-1  s
 073D 06E     [J0758]                           ab ex   w
 073E 08E                                       b=a     w
 073F 158                                       m=c
 0740 38E     [J0397]                           a sr    w
 0741 34E                                       ? a<>0  w
 0742 027                                       ?c  goto [J0396] +4 0746
 0743 198                                       c=m
 0744 10E                                       a=c     w
 0745 3E0                                       rtn

 0746 226     [J0396]                           c=c+1   x
 0747 3CB                                       ?nc goto [J0397] -7 0740
 0748 35C                                       pt= 12
 0749 162                                       a=a+1   p
 074A 06E                                       ab ex   w
 074B 1F3                                       ?nc goto [J0398] +62 0789
 074C 041 030 [J0653]                           ?nc call [J0399] 0C10
 074E 110                                       lc 4
 074F 046                                       c=0     x
 0750 0F3                                       ?nc goto [J0324] +30 076E
 0751 379 028                                   ?nc call [J0184] 0ADE
 0753 04E     [J0451]                           c=0     w
 0754 158                                       m=c
 0755 35C                                       pt= 12
 0756 050                                       lc 1
 0757 0EE     [J0213]                           bc ex   w
 0758 0AE                                       ac ex   w
 0759 1D8                                       c<>m
 075A 0AE                                       ac ex   w
 075B 10B                                       ?nc goto [J0191] +33 077C
 075C 158     [J0474]                           m=c
 075D 046                                       c=0     x
 075E 3CB                                       ?nc goto [J0213] -7 0757
 075F 245 018 [J0461]                           ?nc call [J0029] 0691
 0761 28D 000                                   ?nc call [J0193] 00A3
 0763 3A3                                       ?nc goto [J0213] -12 0757
 0764 275 000                                   ?nc call [J0390] 009D
 0766 02E                                       b=0     w
 0767 0FA                                       bc ex   m
 0768 0AE                                       ac ex   w
 0769 07B                                       ?nc goto [J0400] +15 0778
 076A 2FA                                       ? c<>0  m
 076B 09B                                       ?nc goto [J0401] +19 077E
 076C 0F9 018                                   ?nc call [J0375] 063E
 076E 02E     [J0324]                           b=0     w
 076F 07A                                       ab ex   m
 0770 053                                       ?nc goto [J0402] +10 077A
 0771 275 000                                   ?nc call [J0390] 009D
 0773 1FD 040                                   ?nc call [J0199] 107F
 0775 23D 018                                   ?nc call [J0202] 068F
 0777 038                                       rdreg 0
 0778 266     [J0400]                           c=c-1   x
 0779 266                                       c=c-1   x
 077A 158     [J0402]                           m=c
 077B 046                                       c=0     x
 077C 03E     [J0191]                           b=0     s
 077D 2FA                                       ? c<>0  m
 077E 3DD 036 [J0401]                           ?nc goto [J0363] 0DF7
 0780 1D8                                       c<>m
 0781 246                                       c=a-c   x
 0782 25E                                       c=a-c   s
 0783 013                                       ?nc goto [J0403] +2 0785
 0784 29E                                       c=-c    s
 0785 1D8     [J0403]                           c<>m
 0786 05E                                       c=0     s
 0787 0AE                                       ac ex   w
 0788 06E                                       ab ex   w
 0789 32E     [J0398]                           ? a<b   w
 078A 02B                                       ?nc goto [J0404] +5 078F
 078B 1D8                                       c<>m
 078C 3EE                                       a sl    w
 078D 266                                       c=c-1   x
 078E 1D8                                       c<>m
 078F 35C     [J0404]                           pt= 12
 0790 04E                                       c=0     w
 0791 013                                       ?nc goto [J0405] +2 0793
 0792 222     [J0406]                           c=c+1   p
 0793 18E     [J0405]                           a=a-b   w
 0794 3F3                                       ?nc goto [J0406] -2 0792
 0795 12E                                       a=a+b   w
 0796 3EE                                       a sl    w
 0797 3D4                                       dec pt
 0798 2D4                                       ? pt= 13
 0799 3D3                                       ?nc goto [J0405] -6 0793
 079A 0AE                                       ac ex   w
 079B 198                                       c=m
 079C 375 01A                                   ?nc goto [J0387] 06DD
 079E 10E     [J0367]                           a=c     w
 079F 2BE     [J0370]                           c=-c-1  s
 07A0 085 01F                                   ?c  goto [J0321] 0721
 07A2 349 040 [J0499]                           ?nc call [J0182] 10D2
 07A4 158     [J0672]                           m=c
 07A5 046                                       c=0     x
 07A6 2FA     [J0500]                           ? c<>0  m
 07A7 3C5 036                                   ?nc goto [J0407] 0DF1
 07A9 29B                                       ?nc goto [J0191] -45 077C
 07AA 158     [J0716]                           m=c
 07AB 08E                                       b=a     w
 07AC 0EE                                       bc ex   w
 07AD 1EE                                       c=c+c   w
 07AE 1EE                                       c=c+c   w
 07AF 20E                                       c=a+c   w
 07B0 06E                                       ab ex   w
 07B1 3CE     [J0409]                           c sr    w
 07B2 2EE                                       ? c<>0  w
 07B3 027                                       ?c  goto [J0408] +4 07B7
 07B4 198                                       c=m
 07B5 0AE                                       ac ex   w
 07B6 3E0                                       rtn

 07B7 166     [J0408]                           a=a+1   x
 07B8 3CB                                       ?nc goto [J0409] -7 07B1
 07B9 28E                                       c=-c    w
 07BA 1D8                                       c<>m
 07BB 226                                       c=c+1   x
 07BC 24B                                       ?nc goto [J0403] -55 0785
 07BD 359 040 [J0143]                           ?nc call [J0008] 10D6
 07BF 0A6     [J0136]                           ac ex   x
 07C0 31C                                       pt= 1
 07C1 3E6                                       a sl    x
 07C2 38A                                       a sr    wp
 07C3 0A6                                       ac ex   x
 07C4 188                                       s=1 11
 07C5 2E6                                       ? c<>0  x
 07C6 03B                                       ?nc goto [J0410] +7 07CD
 07C7 184                                       s=0 11
 07C8 266                                       c=c-1   x
 07C9 262                                       c=c-1   p
 07CA 016                                       a=0     xs
 07CB 0B6                                       ac ex   xs
 07CC 270                                       sel ram
 07CD 0AA     [J0410]                           ac ex   wp
 07CE 038                                       rdreg 0
 07CF 3E0                                       rtn

 07D0 1F8     [J0472]                           rdreg 7
 07D1 19C                                       pt= 11
 07D2 04A                                       c=0     wp
 07D3 2FE                                       ? c<>0  s
 07D4 3A0                                       ?nc rtn
 07D5 33C                                       ? rcr 1
 07D6 226                                       c=c+1   x
 07D7 3E0                                       rtn

 07D8 260     [J0155]                           set hex
 07D9 28C                                       ? s=0 7
 07DA 360                                       ?c rtn
 07DB 3A1 03C                                   ?nc call [J0214] 0FE8
 07DD 288                                       s=1 7
 07DE 01A                                       a=0     m
 07DF 01E                                       a=0     s
 07E0 1BA                                       a=a-1   m
 07E1 304                                       s=0 1
 07E2 04E                                       c=0     w
 07E3 104     [J0411]                           s=0 8
 07E4 3E0                                       rtn

 07E5 044     [J0017]                           s=0 4
 07E6 084                                       s=0 5
 07E7 144                                       s=0 6
 07E8 284                                       s=0 7
 07E9 0C4                                       s=0 10
 07EA 184                                       s=0 11
 07EB 2C4                                       s=0 13
 07EC 3BB                                       ?nc goto [J0411] -9 07E3
 07ED 211 010 [J0127]                           ?nc call [J0042] 0484
 07EF 235 058                                   ?nc call [J0022] 168D
 07F1 35C                                       pt= 12
 07F2 130 128                                   ldi 128
 07F4 3C8     [J0412]                           clr kb
 07F5 3CC                                       ? kb
 07F6 159 002                                   ?nc goto [J0012] 0056
 07F8 266                                       c=c-1   x
 07F9 3DB                                       ?nc goto [J0412] -5 07F4
 07FA 3E0                                       rtn

 07FB 27C     [J0890]                           ? rcr 9
 07FC 1EE     [J0874]                           c=c+c   w
 07FD 1EE                                       c=c+c   w
 07FE 14E                                       a=a+c   w
 07FF 3E0                                       rtn

 0800 2CD 040                                   ?nc call [J0133] 10B3
 0802 304                                       s=0 1
 0803 2A5 040                                   ?nc call [J0413] 10A9
 0805 1A8                                       wrreg 6
 0806 104     [J0423]                           s=0 8
 0807 184                                       s=0 11
 0808 084                                       s=0 5
 0809 04E                                       c=0     w
 080A 128                                       wrreg 4
 080B 168                                       wrreg 5
 080C 285 040 [J0421]                           ?nc call [J0414] 10A1
 080E 198                                       c=m
 080F 0AE                                       ac ex   w
 0810 08C                                       ? s=0 5
 0811 15F                                       ?c  goto [J0415] +43 083C
 0812 085 01C                                   ?nc call [J0321] 0721
 0814 2FA                                       ? c<>0  m
 0815 053                                       ?nc goto [J0416] +10 081F
 0816 088                                       s=1 5
 0817 2FE                                       ? c<>0  s
 0818 01B                                       ?nc goto [J0417] +3 081B
 0819 2BE                                       c=-c-1  s
 081A 108                                       s=1 8
 081B 128     [J0417]                           wrreg 4
 081C 168     [J0428]                           wrreg 5
 081D 1B8                                       rdreg 6
 081E 1E8                                       wrreg 7
 081F 1B8     [J0416]                           rdreg 6
 0820 0CC                                       ? s=0 10
 0821 197                                       ?c  goto [J0418] +50 0853
 0822 209 018                                   ?nc call [J0373] 0682
 0824 1A8                                       wrreg 6
 0825 26D 040                                   ?nc call [J0419] 109B
 0827 23D 018                                   ?nc call [J0202] 068F
 0829 0EE                                       bc ex   w
 082A 3F8                                       rdreg 15
 082B 2A1 040                                   ?nc call [J0420] 10A8
 082D 0AE                                       ac ex   w
 082E 2DE                                       ? b<>0  s
 082F 2EB     [J0430]                           ?nc goto [J0421] -35 080C
 0830 1A8                                       wrreg 6
 0831 138                                       rdreg 4
 0832 2FA                                       ? c<>0  m
 0833 13B                                       ?nc goto [J0422] +39 085A
 0834 0C8                                       s=1 10
 0835 18C                                       ? s=0 11
 0836 283                                       ?nc goto [J0423] -48 0806
 0837 1F8                                       rdreg 7
 0838 209 018                                   ?nc call [J0373] 0682
 083A 205 022                                   ?nc goto [J0424] 0881
 083C 085 01C [J0415]                           ?nc call [J0321] 0721
 083E 10C                                       ? s=0 8
 083F 1FD 041                                   ?c  call [J0199] 107F
 0841 138                                       rdreg 4
 0842 1B1 000                                   ?nc call [J0425] 006C
 0844 18C                                       ? s=0 11
 0845 0DF                                       ?c  goto [J0426] +27 0860
 0846 2FE                                       ? c<>0  s
 0847 01B                                       ?nc goto [J0427] +3 084A
 0848 188                                       s=1 11
 0849 2B3     [J0434]                           ?nc goto [J0416] -42 081F
 084A 2BE     [J0427]                           c=-c-1  s
 084B 10E                                       a=c     w
 084C 178                                       rdreg 5
 084D 23D 018                                   ?nc call [J0202] 068F
 084F 2FE                                       ? c<>0  s
 0850 27B                                       ?nc goto [J0416] -49 081F
 0851 138                                       rdreg 4
 0852 253                                       ?nc goto [J0428] -54 081C
 0853 1A9 018 [J0418]                           ?nc call [J0429] 066A
 0855 1A8                                       wrreg 6
 0856 2FE                                       ? c<>0  s
 0857 2C3                                       ?nc goto [J0430] -40 082F
 0858 138                                       rdreg 4
 0859 2FA                                       ? c<>0  m
 085A 09D 02A [J0422]                           ?nc goto [J0431] 0A27
 085C 18C                                       ? s=0 11
 085D 11F                                       ?c  goto [J0432] +35 0880
 085E 29C                                       pt= 7
 085F 0FB                                       ?nc goto [J0433] +31 087E
 0860 2FE     [J0426]                           ? c<>0  s
 0861 347                                       ?c  goto [J0434] -24 0849
 0862 275 040                                   ?nc call [J0178] 109D
 0864 1D8                                       c<>m
 0865 2A5 040                                   ?nc call [J0413] 10A9
 0867 198                                       c=m
 0868 1A8                                       wrreg 6
 0869 04E                                       c=0     w
 086A 128                                       wrreg 4
 086B 285 040 [J0435]                           ?nc call [J0414] 10A1
 086D 138                                       rdreg 4
 086E 23D 018                                   ?nc call [J0202] 068F
 0870 128                                       wrreg 4
 0871 1B8                                       rdreg 6
 0872 209 018                                   ?nc call [J0373] 0682
 0874 1A8                                       wrreg 6
 0875 2FE                                       ? c<>0  s
 0876 3AF                                       ?c  goto [J0435] -11 086B
 0877 138                                       rdreg 4
 0878 355 040                                   ?nc call [J0436] 10D5
 087A 045 01C                                   ?nc call [J0437] 0711
 087C 3E8                                       wrreg 15
 087D 01C     [J0466]                           pt= 3
 087E 2CD 04E [J0433]                           ?nc goto [J0087] 13B3
 0880 1F8     [J0432]                           rdreg 7
 0881 355 040 [J0424]                           ?nc call [J0436] 10D5
 0883 346                                       ? a<>0  x
 0884 017                                       ?c  goto [J0257] +2 0886
 0885 39A                                       a sr    m
 0886 39A     [J0257]                           a sr    m
 0887 19C                                       pt= 11
 0888 0AA                                       ac ex   wp
 0889 25C                                       pt= 9
 088A 0AA                                       ac ex   wp
 088B 3A8                                       wrreg 14
 088C 39D 03C                                   ?nc call [J0438] 0FE7
 088E 2A5 040                                   ?nc call [J0413] 10A9
 0890 184                                       s=0 11
 0891 1A8                                       wrreg 6
 0892 0F0                                       c<>n
 0893 04E     [J0446]                           c=0     w
 0894 1E8                                       wrreg 7
 0895 168                                       wrreg 5
 0896 285 040 [J0445]                           ?nc call [J0414] 10A1
 0898 035 01C                                   ?nc call [J0439] 070D
 089A 178                                       rdreg 5
 089B 1B1 000                                   ?nc call [J0425] 006C
 089D 285 040                                   ?nc call [J0414] 10A1
 089F 0AE                                       ac ex   w
 08A0 1A9 018                                   ?nc call [J0429] 066A
 08A2 055 01C                                   ?nc call [J0440] 0715
 08A4 0B0                                       c=n
 08A5 245 018                                   ?nc call [J0029] 0691
 08A7 1D8                                       c<>m
 08A8 115 038                                   ?nc call [J0441] 0E45
 08AA 291 040                                   ?nc call [J0442] 10A4
 08AC 035 01C                                   ?nc call [J0439] 070D
 08AE 1D8                                       c<>m
 08AF 115 038                                   ?nc call [J0441] 0E45
 08B1 2A1 040                                   ?nc call [J0420] 10A8
 08B3 035 01C                                   ?nc call [J0439] 070D
 08B5 1F8                                       rdreg 7
 08B6 1B1 000                                   ?nc call [J0425] 006C
 08B8 285 040                                   ?nc call [J0414] 10A1
 08BA 0B0                                       c=n
 08BB 23D 018                                   ?nc call [J0202] 068F
 08BD 0F0                                       c<>n
 08BE 1B8                                       rdreg 6
 08BF 209 018                                   ?nc call [J0373] 0682
 08C1 1A8                                       wrreg 6
 08C2 10E                                       a=c     w
 08C3 18C                                       ? s=0 11
 08C4 157                                       ?c  goto [J0443] +42 08EE
 08C5 1F8                                       rdreg 7
 08C6 1D8                                       c<>m
 08C7 359 040                                   ?nc call [J0008] 10D6
 08C9 0AE                                       ac ex   w
 08CA 25C                                       pt= 9
 08CB 00A                                       a=0     wp
 08CC 3EE                                       a sl    w
 08CD 2E6                                       ? c<>0  x
 08CE 017                                       ?c  goto [J0444] +2 08D0
 08CF 3DA                                       c sr    m
 08D0 0AE     [J0444]                           ac ex   w
 08D1 31A                                       ? a<c   m
 08D2 013                                       ?nc goto [J0258] +2 08D4
 08D3 21B     [J0450]                           ?nc goto [J0445] -61 0896
 08D4 0B0     [J0258]                           c=n
 08D5 3E8                                       wrreg 15
 08D6 275 040                                   ?nc call [J0178] 109D
 08D8 198                                       c=m
 08D9 3A8                                       wrreg 14
 08DA 188                                       s=1 11
 08DB 2A5 040                                   ?nc call [J0413] 10A9
 08DD 178                                       rdreg 5
 08DE 128                                       wrreg 4
 08DF 24D 022                                   ?nc goto [J0446] 0893
 08E1 348                                       s=1 12
 08E2 2CD 040 [J0925]                           ?nc call [J0133] 10B3
 08E4 275 040                                   ?nc call [J0178] 109D
 08E6 121 038                                   ?nc call [J0447] 0E48
 08E8 1F5 018                                   ?nc call [J0448] 067D
 08EA 304                                       s=0 1
 08EB 39D 03C                                   ?nc call [J0438] 0FE7
 08ED 123                                       ?nc goto [J0449] +36 0911
 08EE 26D 040 [J0443]                           ?nc call [J0419] 109B
 08F0 23D 018                                   ?nc call [J0202] 068F
 08F2 2FE                                       ? c<>0  s
 08F3 303                                       ?nc goto [J0450] -32 08D3
 08F4 3B8                                       rdreg 14
 08F5 2A1 040                                   ?nc call [J0420] 10A8
 08F7 138                                       rdreg 4
 08F8 2BE                                       c=-c-1  s
 08F9 1B9 01D                                   ?c  call [J0324] 076E
 08FB 0F0                                       c<>n
 08FC 1F8                                       rdreg 7
 08FD 10E                                       a=c     w
 08FE 178                                       rdreg 5
 08FF 1B9 01C                                   ?nc call [J0324] 076E
 0901 0B0                                       c=n
 0902 245 018                                   ?nc call [J0029] 0691
 0904 14D 01C                                   ?nc call [J0451] 0753
 0906 35D 04C                                   ?nc call [J0047] 13D7
 0908 1B8                                       rdreg 6
 0909 10E                                       a=c     w
 090A 178                                       rdreg 5
 090B 2BE                                       c=-c-1  s
 090C 1B9 01D                                   ?c  call [J0324] 076E
 090E 18D 048                                   ?nc call [J0452] 1263
 0910 344                                       s=0 12
 0911 35D 04C [J0449]                           ?nc call [J0047] 13D7
 0913 248                                       s=1 9
 0914 3BD 02C                                   ?nc call [J0024] 0BEF
 0916 1A0     [J0482]                           clear abc
 0917 184                                       s=0 11
 0918 2A1 000                                   ?nc call [J0453] 00A8
 091A 39C                                       pt= 0
 091B 022                                       b=0     p
 091C 35D 04C                                   ?nc call [J0047] 13D7
 091E 275 040                                   ?nc call [J0178] 109D
 0920 0AE                                       ac ex   w
 0921 34C                                       ? s=0 12
 0922 01F                                       ?c  goto [J0454] +3 0925
 0923 04E                                       c=0     w
 0924 3A8                                       wrreg 14
 0925 3EE     [J0454]                           a sl    w
 0926 01C                                       pt= 3
 0927 38A                                       a sr    wp
 0928 346                                       ? a<>0  x
 0929 01F                                       ?c  goto [J0455] +3 092C
 092A 3EA                                       a sl    wp
 092B 38E                                       a sr    w
 092C 2A5 040 [J0455]                           ?nc call [J0413] 10A9
 092E 1F8                                       rdreg 7
 092F 19C                                       pt= 11
 0930 10A                                       a=c     wp
 0931 0AE                                       ac ex   w
 0932 1E8                                       wrreg 7
 0933 3CC                                       ? kb
 0934 085 02B                                   ?c  goto [J0456] 0A21
 0936 109 038                                   ?nc call [J0457] 0E42
 0938 291 040                                   ?nc call [J0442] 10A4
 093A 2CC                                       ? s=0 13
 093B 0E3                                       ?nc goto [J0458] +28 0957
 093C 34C                                       ? s=0 12
 093D 06F                                       ?c  goto [J0459] +13 094A
 093E 2A9 000                                   ?nc call [J0188] 00AA
 0940 1FD 040                                   ?nc call [J0199] 107F
 0942 36D 040                                   ?nc call [J0460] 10DB
 0944 17D 01C                                   ?nc call [J0461] 075F
 0946 271 040                                   ?nc call [J0016] 109C
 0948 0AE                                       ac ex   w
 0949 3A8                                       wrreg 14
 094A 2A5 040 [J0459]                           ?nc call [J0413] 10A9
 094C 109 038                                   ?nc call [J0457] 0E42
 094E 0EE                                       bc ex   w
 094F 2A9 000                                   ?nc call [J0188] 00AA
 0951 17D 01C                                   ?nc call [J0461] 075F
 0953 2A1 000                                   ?nc call [J0453] 00A8
 0955 325 026                                   ?nc goto [J0462] 09C9
 0957 34D 04C [J0458]                           ?nc call [J0463] 13D3
 0959 2A9 000                                   ?nc call [J0188] 00AA
 095B 18D 048                                   ?nc call [J0452] 1263
 095D 0F0                                       c<>n
 095E 2C5 000                                   ?nc call [J0190] 00B1
 0960 095 01C                                   ?nc call [J0195] 0725
 0962 2F6                                       ? c<>0  xs
 0963 0A3                                       ?nc goto [J0464] +20 0977
 0964 1E6                                       c=c+c   x
 0965 097                                       ?c  goto [J0464] +18 0977
 0966 276                                       c=c-1   xs
 0967 276                                       c=c-1   xs
 0968 2F6                                       ? c<>0  xs
 0969 073                                       ?nc goto [J0464] +14 0977
 096A 0A6                                       ac ex   x
 096B 34C                                       ? s=0 12
 096C 1A5 00F                                   ?c  goto [J0465] 0369
 096E 2C5 000                                   ?nc call [J0190] 00B1
 0970 219 018                                   ?nc call [J0371] 0686
 0972 01D 044                                   ?nc call [J0201] 1107
 0974 3A8                                       wrreg 14
 0975 1F5 022                                   ?nc goto [J0466] 087D
 0977 2BD 000 [J0464]                           ?nc call [J0210] 00AF
 0979 35D 04C                                   ?nc call [J0047] 13D7
 097B 219 018                                   ?nc call [J0371] 0686
 097D 2FA                                       ? c<>0  m
 097E 043                                       ?nc goto [J0467] +8 0986
 097F 2C5 000                                   ?nc call [J0190] 00B1
 0981 1F1 01C                                   ?nc call [J0191] 077C
 0983 35D 04C                                   ?nc call [J0047] 13D7
 0985 03B                                       ?nc goto [J0468] +7 098C
 0986 109 038 [J0467]                           ?nc call [J0457] 0E42
 0988 291 040                                   ?nc call [J0442] 10A4
 098A 34D 04C                                   ?nc call [J0463] 13D3
 098C 109 038 [J0468]                           ?nc call [J0457] 0E42
 098E 2BE                                       c=-c-1  s
 098F 0EE                                       bc ex   w
 0990 28D 000                                   ?nc call [J0193] 00A3
 0992 08D 01C                                   ?nc call [J0389] 0723
 0994 2C5 000                                   ?nc call [J0190] 00B1
 0996 24D 018                                   ?nc call [J0189] 0693
 0998 1D8                                       c<>m
 0999 35D 04C                                   ?nc call [J0047] 13D7
 099B 34C                                       ? s=0 12
 099C 15F                                       ?c  goto [J0261] +43 09C7
 099D 109 038                                   ?nc call [J0457] 0E42
 099F 291 040                                   ?nc call [J0442] 10A4
 09A1 035 01C                                   ?nc call [J0439] 070D
 09A3 2BE                                       c=-c-1  s
 09A4 0AE                                       ac ex   w
 09A5 36D 040                                   ?nc call [J0460] 10DB
 09A7 0AE                                       ac ex   w
 09A8 3A8                                       wrreg 14
 09A9 0B0                                       c=n
 09AA 085 01C                                   ?nc call [J0321] 0721
 09AC 3B8                                       rdreg 14
 09AD 1B1 000                                   ?nc call [J0425] 006C
 09AF 2C5 000                                   ?nc call [J0190] 00B1
 09B1 35D 04C                                   ?nc call [J0047] 13D7
 09B3 109 038                                   ?nc call [J0457] 0E42
 09B5 291 040                                   ?nc call [J0442] 10A4
 09B7 06E                                       ab ex   w
 09B8 2C5 000                                   ?nc call [J0190] 00B1
 09BA 245 018                                   ?nc call [J0029] 0691
 09BC 2A1 000                                   ?nc call [J0453] 00A8
 09BE 219 018                                   ?nc call [J0371] 0686
 09C0 2FA                                       ? c<>0  m
 09C1 05B                                       ?nc goto [J0469] +11 09CC
 09C2 049 048                                   ?nc call [J0372] 1212
 09C4 15D 01C                                   ?nc call [J0213] 0757
 09C6 0AB                                       ?nc goto [J0470] +21 09DB
 09C7 2C5 000 [J0261]                           ?nc call [J0190] 00B1
 09C9 35D 04C [J0462]                           ?nc call [J0047] 13D7
 09CB 0E3                                       ?nc goto [J0471] +28 09E7
 09CC 049 048 [J0469]                           ?nc call [J0372] 1212
 09CE 109 038                                   ?nc call [J0457] 0E42
 09D0 291 040                                   ?nc call [J0442] 10A4
 09D2 0AE                                       ac ex   w
 09D3 168                                       wrreg 5
 09D4 209 018                                   ?nc call [J0373] 0682
 09D6 178                                       rdreg 5
 09D7 08D 01C                                   ?nc call [J0389] 0723
 09D9 055 01C                                   ?nc call [J0440] 0715
 09DB 35D 04C [J0470]                           ?nc call [J0047] 13D7
 09DD 109 038                                   ?nc call [J0457] 0E42
 09DF 379 028                                   ?nc call [J0184] 0ADE
 09E1 351 03C                                   ?nc call [J0216] 0FD4
 09E3 36D 040                                   ?nc call [J0460] 10DB
 09E5 1B1 000                                   ?nc call [J0425] 006C
 09E7 2A5 040 [J0471]                           ?nc call [J0413] 10A9
 09E9 341 01C                                   ?nc call [J0472] 07D0
 09EB 1A9 018                                   ?nc call [J0429] 066A
 09ED 10E                                       a=c     w
 09EE 2FE                                       ? c<>0  s
 09EF 095 026                                   ?nc goto [J0454] 0925
 09F1 2A9 000                                   ?nc call [J0188] 00AA
 09F3 34C                                       ? s=0 12
 09F4 19D 00F                                   ?c  goto [J0473] 0367
 09F6 2DA                                       ? b<>0  m
 09F7 153                                       ?nc goto [J0456] +42 0A21
 09F8 36D 040                                   ?nc call [J0460] 10DB
 09FA 171 01C                                   ?nc call [J0474] 075C
 09FC 359 040                                   ?nc call [J0008] 10D6
 09FE 3F8                                       rdreg 15
 09FF 245 018                                   ?nc call [J0029] 0691
 0A01 04A                                       c=0     wp
 0A02 050                                       lc 1
 0A03 150                                       lc 5
 0A04 0A6                                       ac ex   x
 0A05 106                                       a=c     x
 0A06 1E6                                       c=c+c   x
 0A07 033                                       ?nc goto [J0475] +6 0A0D
 0A08 046     [J0479]                           c=0     x
 0A09 10E                                       a=c     w
 0A0A 08E                                       b=a     w
 0A0B 07A     [J0478]                           ab ex   m
 0A0C 063                                       ?nc goto [J0476] +12 0A18
 0A0D 346     [J0475]                           ? a<>0  x
 0A0E 02F                                       ?c  goto [J0477] +5 0A13
 0A0F 07A                                       ab ex   m
 0A10 31A                                       ? a<c   m
 0A11 3D3                                       ?nc goto [J0478] -6 0A0B
 0A12 3B3                                       ?nc goto [J0479] -10 0A08
 0A13 130 010 [J0477]                           ldi 010
 0A15 246                                       c=a-c   x
 0A16 017                                       ?c  goto [J0476] +2 0A18
 0A17 348                                       s=1 12
 0A18 089 050 [J0476]                           ?nc call [J0480] 1422
 0A1A 2BE                                       c=-c-1  s
 0A1B 11E                                       a=c     s
 0A1C 3C9 054                                   ?nc call [J0481] 15F2
 0A1E 34C                                       ? s=0 12
 0A1F 059 026                                   ?nc goto [J0482] 0916
 0A21 28D 000 [J0456]                           ?nc call [J0193] 00A3
 0A23 219 018                                   ?nc call [J0371] 0686
 0A25 226                                       c=c+1   x
 0A26 226                                       c=c+1   x
 0A27 000     [J0431]                           nop
 0A28 01D 044                                   ?nc call [J0201] 1107
 0A2A 3A8                                       wrreg 14
 0A2B 119 054                                   ?nc call [J0483] 1546
 0A2D 189 00E                                   ?nc goto [J0484] 0362
 0A2F 2CD 040                                   ?nc call [J0133] 10B3
 0A31 3BD 02C                                   ?nc call [J0024] 0BEF
 0A33 339 040                                   ?nc call [J0360] 10CE
 0A35 0B0                                       c=n
 0A36 1E8                                       wrreg 7
 0A37 359 008                                   ?nc call [J0179] 02D6
 0A39 36D 008                                   ?nc call [J0485] 02DB
 0A3B 349 040                                   ?nc call [J0182] 10D2
 0A3D 378                                       rdreg 13
 0A3E 2D9 028                                   ?nc call [J0486] 0AB6
 0A40 368                                       wrreg 13
 0A41 338                                       rdreg 12
 0A42 2D9 028                                   ?nc call [J0486] 0AB6
 0A44 328                                       wrreg 12
 0A45 04E                                       c=0     w
 0A46 0F0                                       c<>n
 0A47 3A1 03C                                   ?nc call [J0214] 0FE8
 0A49 04E                                       c=0     w
 0A4A 3B1 03C                                   ?nc call [J0487] 0FEC
 0A4C 219 050 [J0493]                           ?nc call [J0186] 1486
 0A4E 149 054                                   ?nc call [J0488] 1552
 0A50 2D9 028                                   ?nc call [J0486] 0AB6
 0A52 0EE                                       bc ex   w
 0A53 00C                                       ? s=0 3
 0A54 02F                                       ?c  goto [J0489] +5 0A59
 0A55 3F8                                       rdreg 15
 0A56 2FA                                       ? c<>0  m
 0A57 017                                       ?c  goto [J0489] +2 0A59
 0A58 02E                                       b=0     w
 0A59 338     [J0489]                           rdreg 12
 0A5A 335 040                                   ?nc call [J0490] 10CD
 0A5C 0EE                                       bc ex   w
 0A5D 128                                       wrreg 4
 0A5E 0AE                                       ac ex   w
 0A5F 0E8                                       wrreg 3
 0A60 0BE                                       ac ex   s
 0A61 0B0                                       c=n
 0A62 23D 018                                   ?nc call [J0202] 068F
 0A64 070                                       n=c
 0A65 138                                       rdreg 4
 0A66 10E                                       a=c     w
 0A67 0F8                                       rdreg 3
 0A68 23D 018                                   ?nc call [J0202] 068F
 0A6A 128                                       wrreg 4
 0A6B 0F9 018                                   ?nc call [J0375] 063E
 0A6D 23D 018                                   ?nc call [J0202] 068F
 0A6F 3B1 03C                                   ?nc call [J0487] 0FEC
 0A71 138                                       rdreg 4
 0A72 271 040                                   ?nc call [J0016] 109C
 0A74 199 018                                   ?nc call [J0491] 0666
 0A76 368                                       wrreg 13
 0A77 3F8                                       rdreg 15
 0A78 209 018                                   ?nc call [J0373] 0682
 0A7A 3E8                                       wrreg 15
 0A7B 339 040                                   ?nc call [J0360] 10CE
 0A7D 1F8                                       rdreg 7
 0A7E 1A9 018                                   ?nc call [J0429] 066A
 0A80 1E8                                       wrreg 7
 0A81 3CC                                       ? kb
 0A82 01F                                       ?c  goto [J0492] +3 0A85
 0A83 2FA                                       ? c<>0  m
 0A84 247                                       ?c  goto [J0493] -56 0A4C
 0A85 0A9 000 [J0492]                           ?nc call [J0004] 002A
 0A87 1D1 016                                   ?nc goto [J0494] 0574
 0A89 3A1 03C                                   ?nc call [J0214] 0FE8
 0A8B 3CD 040                                   ?nc call [J0495] 10F3
 0A8D 3B1 03C                                   ?nc call [J0487] 0FEC
 0A8F 0C8                                       s=1 10
 0A90 349 040                                   ?nc call [J0182] 10D2
 0A92 378                                       rdreg 13
 0A93 2BE                                       c=-c-1  s
 0A94 3B1 03D                                   ?c  call [J0487] 0FEC
 0A96 3CD 040                                   ?nc call [J0495] 10F3
 0A98 0F9 002 [J0505]                           ?nc goto [J0171] 003E
 0A9A 044                                       s=0 4
 0A9B 1A1 018 [J0503]                           ?nc call [J0496] 0668
 0A9D 35D 04C                                   ?nc call [J0047] 13D7
 0A9F 04C                                       ? s=0 4
 0AA0 1B5 018                                   ?nc call [J0497] 066D
 0AA2 04C                                       ? s=0 4
 0AA3 125 019                                   ?c  call [J0498] 0649
 0AA5 289 01C                                   ?nc call [J0499] 07A2
 0AA7 049 048                                   ?nc call [J0372] 1212
 0AA9 299 01C                                   ?nc call [J0500] 07A6
 0AAB 3BD 034                                   ?nc call [J0501] 0DEF
 0AAD 04C                                       ? s=0 4
 0AAE 027                                       ?c  goto [J0502] +4 0AB2
 0AAF 128                                       wrreg 4
 0AB0 048                                       s=1 4
 0AB1 353                                       ?nc goto [J0503] -22 0A9B
 0AB2 245 040 [J0502]                           ?nc call [J0504] 1091
 0AB4 138                                       rdreg 4
 0AB5 31B                                       ?nc goto [J0505] -29 0A98
 0AB6 10E     [J0486]                           a=c     w
 0AB7 21C                                       pt= 2
 0AB8 098                                       c=g
 0AB9 35C                                       pt= 12
 0ABA 0AE                                       ac ex   w
 0ABB 214     [J0506]                           ? pt= 2
 0ABC 117                                       ?c  goto [J0184] +34 0ADE
 0ABD 3D4                                       dec pt
 0ABE 1B6                                       a=a-1   xs
 0ABF 3E3                                       ?nc goto [J0506] -4 0ABB
 0AC0 10E                                       a=c     w
 0AC1 146                                       a=a+c   x
 0AC2 053                                       ?nc goto [J0507] +10 0ACC
 0AC3 106                                       a=c     x
 0AC4 3DC     [J0509]                           inc pt
 0AC5 2D4                                       ? pt= 13
 0AC6 027                                       ?c  goto [J0508] +4 0ACA
 0AC7 166                                       a=a+1   x
 0AC8 3E3                                       ?nc goto [J0509] -4 0AC4
 0AC9 053                                       ?nc goto [J0510] +10 0AD3
 0ACA 04E     [J0508]                           c=0     w
 0ACB 09B                                       ?nc goto [J0184] +19 0ADE
 0ACC 106     [J0507]                           a=c     x
 0ACD 013                                       ?nc goto [J0511] +2 0ACF
 0ACE 3D4     [J0512]                           dec pt
 0ACF 214     [J0511]                           ? pt= 2
 0AD0 077                                       ?c  goto [J0184] +14 0ADE
 0AD1 1A6                                       a=a-1   x
 0AD2 3E3                                       ?nc goto [J0512] -4 0ACE
 0AD3 02E     [J0510]                           b=0     w
 0AD4 08A                                       b=a     wp
 0AD5 13A                                       a=a+b   m
 0AD6 033                                       ?nc goto [J0513] +6 0ADC
 0AD7 01E                                       a=0     s
 0AD8 17E                                       a=a+1   s
 0AD9 226                                       c=c+1   x
 0ADA 38E                                       a sr    w
 0ADB 3D4                                       dec pt
 0ADC 00A     [J0513]                           a=0     wp
 0ADD 0BA                                       ac ex   m
 0ADE 02E     [J0184]                           b=0     w
 0ADF 0FA                                       bc ex   m
 0AE0 0DA                                       c=b     m
 0AE1 10E                                       a=c     w
 0AE2 3E0                                       rtn

 0AE3 188                                       s=1 11
 0AE4 0C8                                       s=1 10
 0AE5 2CD 040                                   ?nc call [J0133] 10B3
 0AE7 33D 008                                   ?nc call [J0514] 02CF
 0AE9 0B0                                       c=n
 0AEA 359 008                                   ?nc call [J0179] 02D6
 0AEC 36D 008                                   ?nc call [J0485] 02DB
 0AEE 3AD 03C                                   ?nc call [J0515] 0FEB
 0AF0 27D 03C                                   ?nc call [J0516] 0F9F
 0AF2 2D9 028                                   ?nc call [J0486] 0AB6
 0AF4 3B1 03C                                   ?nc call [J0487] 0FEC
 0AF6 2BE                                       c=-c-1  s
 0AF7 0E8                                       wrreg 3
 0AF8 0B0                                       c=n
 0AF9 1A9 018                                   ?nc call [J0429] 066A
 0AFB 070                                       n=c
 0AFC 27D 03C                                   ?nc call [J0516] 0F9F
 0AFE 2D9 028                                   ?nc call [J0486] 0AB6
 0B00 335 040                                   ?nc call [J0490] 10CD
 0B02 0F8                                       rdreg 3
 0B03 23D 018                                   ?nc call [J0202] 068F
 0B05 101 002                                   ?nc goto [J0207] 0040
 0B07 308                                       s=1 1
 0B08 013                                       ?nc goto [J0517] +2 0B0A
 0B09 304                                       s=0 1
 0B0A 339 040 [J0517]                           ?nc call [J0360] 10CE
 0B0C 34D 02C                                   ?nc call [J0518] 0BD3
 0B0E 0E8                                       wrreg 3
 0B0F 0B0                                       c=n
 0B10 34D 02C                                   ?nc call [J0518] 0BD3
 0B12 0EE                                       bc ex   w
 0B13 0F8                                       rdreg 3
 0B14 355 040                                   ?nc call [J0436] 10D5
 0B16 04E                                       c=0     w
 0B17 11C                                       pt= 8
 0B18 250                                       lc 9
 0B19 110                                       lc 4
 0B1A 0EE                                       bc ex   w
 0B1B 0AE                                       ac ex   w
 0B1C 29C                                       pt= 7
 0B1D 0E0                                       sel q
 0B1E 11C                                       pt= 8
 0B1F 37A                                       ? a<>c  m
 0B20 083                                       ?nc goto [J0519] +16 0B30
 0B21 31A     [J0522]                           ? a<c   m
 0B22 06F                                       ?c  goto [J0520] +13 0B2F
 0B23 0AE                                       ac ex   w
 0B24 3E8                                       wrreg 15
 0B25 0AE                                       ac ex   w
 0B26 166                                       a=a+1   x
 0B27 04F                                       ?c  goto [J0519] +9 0B30
 0B28 12A                                       a=a+b   wp
 0B29 01B                                       ?nc goto [J0521] +3 0B2C
 0B2A 352                                       ? a<>0  pq
 0B2B 3B7                                       ?c  goto [J0522] -10 0B21
 0B2C 18A     [J0521]                           a=a-b   wp
 0B2D 18E                                       a=a-b   w
 0B2E 39B                                       ?nc goto [J0522] -13 0B21
 0B2F 346     [J0520]                           ? a<>0  x
 0B30 1D5 032 [J0519]                           ?nc goto [J0523] 0C75
 0B32 088                                       s=1 5
 0B33 151 030                                   ?nc call [J0524] 0C54
 0B35 05E                                       c=0     s
 0B36 271 040                                   ?nc call [J0016] 109C
 0B38 0AE                                       ac ex   w
 0B39 3E8                                       wrreg 15
 0B3A 359 040                                   ?nc call [J0008] 10D6
 0B3C 3F8                                       rdreg 15
 0B3D 11A                                       a=c     m
 0B3E 151 030                                   ?nc call [J0524] 0C54
 0B40 271 040                                   ?nc call [J0016] 109C
 0B42 23D 018                                   ?nc call [J0202] 068F
 0B44 3F8                                       rdreg 15
 0B45 171 01C                                   ?nc call [J0474] 075C
 0B47 2E8                                       wrreg 11
 0B48 2BE                                       c=-c-1  s
 0B49 355 041                                   ?c  call [J0436] 10D5
 0B4B 3F8                                       rdreg 15
 0B4C 226                                       c=c+1   x
 0B4D 05A                                       c=0     m
 0B4E 07C                                       ? rcr 4
 0B4F 226                                       c=c+1   x
 0B50 226                                       c=c+1   x
 0B51 23D 018                                   ?nc call [J0202] 068F
 0B53 271 040                                   ?nc call [J0016] 109C
 0B55 0AE                                       ac ex   w
 0B56 3E8                                       wrreg 15
 0B57 30C                                       ? s=0 1
 0B58 06F                                       ?c  goto [J0525] +13 0B65
 0B59 338                                       rdreg 12
 0B5A 049 01C                                   ?nc call [J0526] 0712
 0B5C 02D 01C                                   ?nc call [J0527] 070B
 0B5E 378                                       rdreg 13
 0B5F 359 008                                   ?nc call [J0179] 02D6
 0B61 245 018                                   ?nc call [J0029] 0691
 0B63 2BE                                       c=-c-1  s
 0B64 368                                       wrreg 13
 0B65 338     [J0525]                           rdreg 12
 0B66 049 01C                                   ?nc call [J0526] 0712
 0B68 328                                       wrreg 12
 0B69 3B8                                       rdreg 14
 0B6A 049 01C                                   ?nc call [J0526] 0712
 0B6C 3A8                                       wrreg 14
 0B6D 069 030                                   ?nc call [J0528] 0C1A
 0B6F 050                                       lc 1
 0B70 10E                                       a=c     w
 0B71 338                                       rdreg 12
 0B72 23D 018                                   ?nc call [J0202] 068F
 0B74 2E8                                       wrreg 11
 0B75 3F8                                       rdreg 15
 0B76 2F6                                       ? c<>0  xs
 0B77 013                                       ?nc goto [J0529] +2 0B79
 0B78 084                                       s=0 5
 0B79 30C     [J0529]                           ? s=0 1
 0B7A 033                                       ?nc goto [J0530] +6 0B80
 0B7B 304                                       s=0 1
 0B7C 001 050                                   ?nc call [J0205] 1400
 0B7E 308                                       s=1 1
 0B7F 023                                       ?nc goto [J0531] +4 0B83
 0B80 244     [J0530]                           s=0 9
 0B81 131 050                                   ?nc call [J0532] 144C
 0B83 3F8     [J0531]                           rdreg 15
 0B84 1BD 040                                   ?nc call [J0181] 106F
 0B86 3E8                                       wrreg 15
 0B87 219 018                                   ?nc call [J0371] 0686
 0B89 01D 01C                                   ?nc call [J0219] 0707
 0B8B 2BE                                       c=-c-1  s
 0B8C 30C                                       ? s=0 1
 0B8D 06B                                       ?nc goto [J0533] +13 0B9A
 0B8E 0F0                                       c<>n
 0B8F 3B1 03C                                   ?nc call [J0487] 0FEC
 0B91 275 040                                   ?nc call [J0178] 109D
 0B93 2FA                                       ? c<>0  m
 0B94 017                                       ?c  goto [J0534] +2 0B96
 0B95 070                                       n=c
 0B96 3AD 03C [J0534]                           ?nc call [J0515] 0FEB
 0B98 349 040                                   ?nc call [J0182] 10D2
 0B9A 378     [J0533]                           rdreg 13
 0B9B 2BE                                       c=-c-1  s
 0B9C 1B1 001                                   ?c  call [J0425] 006C
 0B9E 338                                       rdreg 12
 0B9F 3E1 03C                                   ?nc call [J0535] 0FF8
 0BA1 328                                       wrreg 12
 0BA2 3B8                                       rdreg 14
 0BA3 3E1 03C                                   ?nc call [J0535] 0FF8
 0BA5 3A8                                       wrreg 14
 0BA6 30C                                       ? s=0 1
 0BA7 013                                       ?nc goto [J0536] +2 0BA9
 0BA8 378                                       rdreg 13
 0BA9 101 002 [J0536]                           ?nc goto [J0207] 0040
 0BAB 260     [J0141]                           set hex
 0BAC 0C4                                       s=0 10
 0BAD 359 040                                   ?nc call [J0008] 10D6
 0BAF 31C     [J0132]                           pt= 1
 0BB0 26A                                       c=c-1   wp
 0BB1 03B                                       ?nc goto [J0537] +7 0BB8
 0BB2 190                                       lc 6
 0BB3 01B                                       ?nc goto [J0538] +3 0BB6
 0BB4 222     [J0539]                           c=c+1   p
 0BB5 226                                       c=c+1   x
 0BB6 3A8     [J0538]                           wrreg 14
 0BB7 3E0                                       rtn

 0BB8 106     [J0537]                           a=c     x
 0BB9 142                                       a=a+c   p
 0BBA 142                                       a=a+c   p
 0BBB 3CB                                       ?nc goto [J0539] -7 0BB4
 0BBC 3E6                                       a sl    x
 0BBD 3E6                                       a sl    x
 0BBE 1D6                                       a=a-c   xs
 0BBF 356                                       ? a<>0  xs
 0BC0 017                                       ?c  goto [J0540] +2 0BC2
 0BC1 0C8                                       s=1 10
 0BC2 042     [J0540]                           c=0     p
 0BC3 39B                                       ?nc goto [J0538] -13 0BB6
 0BC4 2AD 02C [J0135]                           ?nc call [J0141] 0BAB
 0BC6 0CC                                       ? s=0 10
 0BC7 3A0                                       ?nc rtn
 0BC8 04A                                       c=0     wp
 0BC9 36B                                       ?nc goto [J0538] -19 0BB6
 0BCA 37D 03C [J0797]                           ?nc call [J0335] 0FDF
 0BCC 04E                                       c=0     w
 0BCD 09C     [J0788]                           pt= 5
 0BCE 350                                       lc 13
 0BCF 210                                       lc 8
 0BD0 150                                       lc 5
 0BD1 350                                       lc 13
 0BD2 3E0                                       rtn

 0BD3 35C     [J0518]                           pt= 12
 0BD4 0C1 030                                   ?nc call [J0541] 0C30
 0BD6 0F1 030                                   ?nc call [J0542] 0C3C
 0BD8 0EE                                       bc ex   w
 0BD9 04D 030                                   ?nc call [J0543] 0C13
 0BDB 0CE                                       c=b     w
 0BDC 07C                                       ? rcr 4
 0BDD 20E                                       c=a+c   w
 0BDE 05C                                       pt= 4
 0BDF 04A                                       c=0     wp
 0BE0 3E0                                       rtn

 0BE1 276     [J0870]                           c=c-1   xs
 0BE2 05A                                       c=0     m
 0BE3 05C                                       pt= 4
 0BE4 0D0                                       lc 3
 0BE5 3D0                                       lc 15
 0BE6 2FC                                       ? rcr 13
 0BE7 330                                       cxisa
 0BE8 0F6                                       bc ex   xs
 0BE9 05A                                       c=0     m
 0BEA 056                                       c=0     xs
 0BEB 3E0                                       rtn

 0BEC 384     [J0124]                           s=0 0
 0BED 235 058 [J0592]                           ?nc call [J0022] 168D
 0BEF 3C8     [J0024]                           clr kb
 0BF0 3CC                                       ? kb
 0BF1 3F7                                       ?c  goto [J0024] -2 0BEF
 0BF2 130 004 [J0034]                           ldi 004
 0BF4 3C8     [J0544]                           clr kb
 0BF5 3CC                                       ? kb
 0BF6 266                                       c=c-1   x
 0BF7 3EB                                       ?nc goto [J0544] -3 0BF4
 0BF8 3E0                                       rtn

 0BF9 04E     [J0009]                           c=0     w
 0BFA 220                                       c=keys
 0BFB 03C                                       ? rcr 3
 0BFC 106                                       a=c     x
 0BFD 130 018                                   ldi 018
 0BFF 3E0                                       rtn

 0C00 069 030 [J0566]                           ?nc call [J0528] 0C1A
 0C02 110                                       lc 4
 0C03 1D0                                       lc 7
 0C04 210     [J0229]                           lc 8
 0C05 050                                       lc 1
 0C06 190                                       lc 6
 0C07 110                                       lc 4
 0C08 39C                                       pt= 0
 0C09 0EB                                       ?nc goto [J0545] +29 0C26
 0C0A 38E     [J0557]                           a sr    w
 0C0B 19C                                       pt= 11
 0C0C 1B8                                       rdreg 6
 0C0D 0AA                                       ac ex   wp
 0C0E 0A6                                       ac ex   x
 0C0F 1A8     [J0573]                           wrreg 6
 0C10 1B8     [J0399]                           rdreg 6
 0C11 0AE                                       ac ex   w
 0C12 3FA                                       a sl    m
 0C13 3FA     [J0543]                           a sl    m
 0C14 3FA     [J0651]                           a sl    m
 0C15 3FA                                       a sl    m
 0C16 3FA     [J0547]                           a sl    m
 0C17 006                                       a=0     x
 0C18 166                                       a=a+1   x
 0C19 01E                                       a=0     s
 0C1A 04E     [J0528]                           c=0     w
 0C1B 39C                                       pt= 0
 0C1C 090                                       lc 2
 0C1D 35C                                       pt= 12
 0C1E 3E0                                       rtn

 0C1F 128     [J0569]                           wrreg 4
 0C20 0D0                                       lc 3
 0C21 190                                       lc 6
 0C22 34C                                       ? s=0 12
 0C23 027                                       ?c  goto [J0546] +4 0C27
 0C24 150                                       lc 5
 0C25 090                                       lc 2
 0C26 150     [J0545]                           lc 5
 0C27 3E0     [J0546]                           rtn

 0C28 38E     [J0571]                           a sr    w
 0C29 1B8                                       rdreg 6
 0C2A 0AA                                       ac ex   wp
 0C2B 25C                                       pt= 9
 0C2C 0AA                                       ac ex   wp
 0C2D 1A8                                       wrreg 6
 0C2E 10E     [J0648]                           a=c     w
 0C2F 33B                                       ?nc goto [J0547] -25 0C16
 0C30 266     [J0541]                           c=c-1   x
 0C31 023                                       ?nc goto [J0548] +4 0C35
 0C32 046                                       c=0     x
 0C33 3CA                                       c sr    wp
 0C34 01B                                       ?nc goto [J0549] +3 0C37
 0C35 2E6     [J0548]                           ? c<>0  x
 0C36 0D7                                       ?c  goto [J0550] +26 0C50
 0C37 10E     [J0549]                           a=c     w
 0C38 2A0                                       set dec
 0C39 3E0                                       rtn

 0C3A 0CE     [J0551]                           c=b     w
 0C3B 3E3                                       ?nc goto [J0549] -4 0C37
 0C3C 260     [J0542]                           set hex
 0C3D 0EE                                       bc ex   w
 0C3E 31C                                       pt= 1
 0C3F 098                                       c=g
 0C40 1F6                                       c=c+c   xs
 0C41 1F6                                       c=c+c   xs
 0C42 3C7                                       ?c  goto [J0551] -8 0C3A
 0C43 0CE                                       c=b     w
 0C44 10E                                       a=c     w
 0C45 37C                                       ? rcr 12
 0C46 0DC                                       pt= 10
 0C47 3CA                                       c sr    wp
 0C48 3CA                                       c sr    wp
 0C49 0AE                                       ac ex   w
 0C4A 04A                                       c=0     wp
 0C4B 23C                                       ? rcr 2
 0C4C 21A                                       c=a+c   m
 0C4D 0A6                                       ac ex   x
 0C4E 34B                                       ?nc goto [J0549] -23 0C37
 0C4F 24E     [J0579]                           c=a-c   w
 0C50 2EE     [J0550]                           ? c<>0  w
 0C51 127                                       ?c  goto [J0523] +36 0C75
 0C52 1F8                                       rdreg 7
 0C53 3E0                                       rtn

 0C54 09A     [J0524]                           b=a     m
 0C55 04D 030                                   ?nc call [J0543] 0C13
 0C57 0CE                                       c=b     w
 0C58 07C                                       ? rcr 4
 0C59 21A                                       c=a+c   m
 0C5A 05C                                       pt= 4
 0C5B 04A                                       c=0     wp
 0C5C 226                                       c=c+1   x
 0C5D 0F1 030                                   ?nc call [J0542] 0C3C
 0C5F 046                                       c=0     x
 0C60 270                                       sel ram
 0C61 365 018                                   ?nc call [J0382] 06D9
 0C63 0E8                                       wrreg 3
 0C64 0C8                                       s=1 10
 0C65 275 000 [J0553]                           ?nc call [J0390] 009D
 0C67 2CD 040                                   ?nc call [J0133] 10B3
 0C69 2A5 040                                   ?nc call [J0413] 10A9
 0C6B 184                                       s=0 11
 0C6C 344                                       s=0 12
 0C6D 2C4                                       s=0 13
 0C6E 0AE                                       ac ex   w
 0C6F 35C                                       pt= 12
 0C70 163                                       ?nc goto [J0552] +44 0C9C
 0C71 1BD 040                                   ?nc call [J0181] 106F
 0C73 2FA                                       ? c<>0  m
 0C74 38B                                       ?nc goto [J0553] -15 0C65
 0C75 11C     [J0523]                           pt= 8
 0C76 2CD 04E                                   ?nc goto [J0087] 13B3
 0C78 179 03C [J0561]                           ?nc call [J0554] 0F5E
 0C7A 0F9 018 [J0172]                           ?nc call [J0375] 063E
 0C7C 3B1 03C                                   ?nc call [J0487] 0FEC
 0C7E 0AE                                       ac ex   w
 0C7F 3E0     [J0251]                           rtn

 0C80 3CE     [J0563]                           c sr    w
 0C81 18C                                       ? s=0 11
 0C82 01F                                       ?c  goto [J0555] +3 0C85
 0C83 2CC                                       ? s=0 13
 0C84 033                                       ?nc goto [J0556] +6 0C8A
 0C85 302     [J0555]                           ? a<c   p
 0C86 027                                       ?c  goto [J0556] +4 0C8A
 0C87 25C                                       pt= 9
 0C88 2C8                                       s=1 13
 0C89 002                                       a=0     p
 0C8A 029 030 [J0556]                           ?nc call [J0557] 0C0A
 0C8C 145 03C                                   ?nc call [J0558] 0F51
 0C8E 0F9 03C                                   ?nc call [J0559] 0F3E
 0C90 15D 03C                                   ?nc call [J0560] 0F57
 0C92 18C                                       ? s=0 11
 0C93 32B                                       ?nc goto [J0561] -27 0C78
 0C94 184                                       s=0 11
 0C95 091 036                                   ?nc goto [J0562] 0D24
 0C97 168     [J0580]                           wrreg 5
 0C98 0B0                                       c=n
 0C99 08C                                       ? s=0 5
 0C9A 013                                       ?nc goto [J0552] +2 0C9C
 0C9B 0F8                                       rdreg 3
 0C9C 2FE     [J0552]                           ? c<>0  s
 0C9D 2C7                                       ?c  goto [J0523] -40 0C75
 0C9E 0C1 030 [J0585]                           ?nc call [J0541] 0C30
 0CA0 05C                                       pt= 4
 0CA1 2EA                                       ? c<>0  wp
 0CA2 29F                                       ?c  goto [J0523] -45 0C75
 0CA3 0F1 030                                   ?nc call [J0542] 0C3C
 0CA5 04E                                       c=0     w
 0CA6 19C                                       pt= 11
 0CA7 0D0                                       lc 3
 0CA8 34C                                       ? s=0 12
 0CA9 2BF                                       ?c  goto [J0563] -41 0C80
 0CAA 19C                                       pt= 11
 0CAB 31A                                       ? a<c   m
 0CAC 02B                                       ?nc goto [J0564] +5 0CB1
 0CAD 1BA                                       a=a-1   m
 0CAE 05C                                       pt= 4
 0CAF 00A                                       a=0     wp
 0CB0 35C                                       pt= 12
 0CB1 050     [J0564]                           lc 1
 0CB2 14E                                       a=a+c   w
 0CB3 029 030                                   ?nc call [J0557] 0C0A
 0CB5 189 03C                                   ?nc call [J0565] 0F62
 0CB7 0F9 03C                                   ?nc call [J0559] 0F3E
 0CB9 15D 03C                                   ?nc call [J0560] 0F57
 0CBB 001 030                                   ?nc call [J0566] 0C00
 0CBD 181 03C                                   ?nc call [J0567] 0F60
 0CBF 1E8     [J0582]                           wrreg 7
 0CC0 130 005                                   ldi 005
 0CC2 246                                       c=a-c   x
 0CC3 05A                                       c=0     m
 0CC4 141 030                                   ?nc call [J0550] 0C50
 0CC6 001 030                                   ?nc call [J0566] 0C00
 0CC8 1AD 03C                                   ?nc call [J0568] 0F6B
 0CCA 069 030                                   ?nc call [J0528] 0C1A
 0CCC 050                                       lc 1
 0CCD 090                                       lc 2
 0CCE 050                                       lc 1
 0CCF 150                                       lc 5
 0CD0 181 03C                                   ?nc call [J0567] 0F60
 0CD2 069 030                                   ?nc call [J0528] 0C1A
 0CD4 07D 030                                   ?nc call [J0569] 0C1F
 0CD6 11C                                       pt= 8
 0CD7 110                                       lc 4
 0CD8 090                                       lc 2
 0CD9 150                                       lc 5
 0CDA 1B9 01C                                   ?nc call [J0324] 076E
 0CDC 1AD 03C                                   ?nc call [J0568] 0F6B
 0CDE 07C                                       ? rcr 4
 0CDF 10E                                       a=c     w
 0CE0 029 030                                   ?nc call [J0557] 0C0A
 0CE2 189 03C [J0574]                           ?nc call [J0565] 0F62
 0CE4 1F8                                       rdreg 7
 0CE5 181 03C                                   ?nc call [J0567] 0F60
 0CE7 001 030                                   ?nc call [J0566] 0C00
 0CE9 181 03C                                   ?nc call [J0567] 0F60
 0CEB 069 030                                   ?nc call [J0528] 0C1A
 0CED 119 03C                                   ?nc call [J0570] 0F46
 0CEF 1B9 01C                                   ?nc call [J0324] 076E
 0CF1 0C1 030                                   ?nc call [J0541] 0C30
 0CF3 19C                                       pt= 11
 0CF4 0A1 030                                   ?nc call [J0571] 0C28
 0CF6 010                                       lc 0
 0CF7 110                                       lc 4
 0CF8 31A                                       ? a<c   m
 0CF9 043                                       ?nc goto [J0572] +8 0D01
 0CFA 1B8                                       rdreg 6
 0CFB 27A                                       c=c-1   m
 0CFC 01C                                       pt= 3
 0CFD 042                                       c=0     p
 0CFE 03D 030                                   ?nc call [J0573] 0C0F
 0D00 313                                       ?nc goto [J0574] -30 0CE2
 0D01 0F9 03C [J0572]                           ?nc call [J0559] 0F3E
 0D03 0C1 030                                   ?nc call [J0541] 0C30
 0D05 39A                                       a sr    m
 0D06 39A                                       a sr    m
 0D07 29C                                       pt= 7
 0D08 0A1 030                                   ?nc call [J0571] 0C28
 0D0A 050                                       lc 1
 0D0B 110                                       lc 4
 0D0C 35C                                       pt= 12
 0D0D 31A                                       ? a<c   m
 0D0E 023                                       ?nc goto [J0575] +4 0D12
 0D0F 250                                       lc 9
 0D10 250                                       lc 9
 0D11 02B                                       ?nc goto [J0576] +5 0D16
 0D12 210     [J0575]                           lc 8
 0D13 1D0                                       lc 7
 0D14 09C                                       pt= 5
 0D15 050                                       lc 1
 0D16 21A     [J0576]                           c=a+c   m
 0D17 0F1 031                                   ?c  call [J0542] 0C3C
 0D19 266                                       c=c-1   x
 0D1A 369 018 [J0252]                           ?nc call [J0577] 06DA
 0D1C 10E                                       a=c     w
 0D1D 18C                                       ? s=0 11
 0D1E 07F                                       ?c  goto [J0578] +15 0D2D
 0D1F 275 000                                   ?nc call [J0390] 009D
 0D21 13D 030                                   ?nc call [J0579] 0C4F
 0D23 188                                       s=1 11
 0D24 0CC     [J0562]                           ? s=0 10
 0D25 25D 033                                   ?c  goto [J0580] 0C97
 0D27 10E                                       a=c     w
 0D28 0B0                                       c=n
 0D29 1C5 03C                                   ?nc call [J0581] 0F71
 0D2B 2FD 032                                   ?nc goto [J0582] 0CBF
 0D2D 0CC     [J0578]                           ? s=0 10
 0D2E 083                                       ?nc goto [J0583] +16 0D3E
 0D2F 0B0                                       c=n
 0D30 08C                                       ? s=0 5
 0D31 013                                       ?nc goto [J0584] +2 0D33
 0D32 0F8                                       rdreg 3
 0D33 13D 030 [J0584]                           ?nc call [J0579] 0C4F
 0D35 179 03C                                   ?nc call [J0554] 0F5E
 0D37 348                                       s=1 12
 0D38 08C                                       ? s=0 5
 0D39 360                                       ?c rtn
 0D3A 1E9 030                                   ?nc call [J0172] 0C7A
 0D3C 279 032                                   ?nc goto [J0585] 0C9E
 0D3E 1D8     [J0583]                           c<>m
 0D3F 0F9 018                                   ?nc call [J0375] 063E
 0D41 1F8                                       rdreg 7
 0D42 271 040                                   ?nc call [J0016] 109C
 0D44 198                                       c=m
 0D45 0F0                                       c<>n
 0D46 09C                                       pt= 5
 0D47 162                                       a=a+1   p
 0D48 2A8                                       wrreg 10
 0D49 04E                                       c=0     w
 0D4A 35C                                       pt= 12
 0D4B 1D0                                       lc 7
 0D4C 1B9 01C                                   ?nc call [J0324] 076E
 0D4E 1BD 040                                   ?nc call [J0181] 106F
 0D50 10E                                       a=c     w
 0D51 04E                                       c=0     w
 0D52 1D0                                       lc 7
 0D53 085 01C                                   ?nc call [J0321] 0721
 0D55 2E6                                       ? c<>0  x
 0D56 01F                                       ?c  goto [J0586] +3 0D59
 0D57 2FA                                       ? c<>0  m
 0D58 017                                       ?c  goto [J0587] +2 0D5A
 0D59 1D0     [J0586]                           lc 7
 0D5A 27C     [J0587]                           ? rcr 9
 0D5B 10E                                       a=c     w
 0D5C 0B0                                       c=n
 0D5D 260                                       set hex
 0D5E 27E                                       c=c-1   s
 0D5F 2E6                                       ? c<>0  x
 0D60 017                                       ?c  goto [J0588] +2 0D62
 0D61 3CE                                       c sr    w
 0D62 05C     [J0588]                           pt= 4
 0D63 3D0                                       lc 15
 0D64 0A2                                       ac ex   p
 0D65 2DC                                       pt= 13
 0D66 350                                       lc 13
 0D67 10E                                       a=c     w
 0D68 304                                       s=0 1
 0D69 20C                                       ? s=0 2
 0D6A 13D 002                                   ?nc goto [J0032] 004F
 0D6C 153                                       ?nc goto [J0589] +42 0D96
 0D6D 0B0     [J0055]                           c=n
 0D6E 103                                       ?nc goto [J0590] +32 0D8E
 0D6F 04E     [J0104]                           c=0     w
 0D70 21C                                       pt= 2
 0D71 350                                       lc 13
 0D72 25C                                       pt= 9
 0D73 222                                       c=c+1   p
 0D74 10E                                       a=c     w
 0D75 1D0                                       lc 7
 0D76 0EE                                       bc ex   w
 0D77 3B8                                       rdreg 14
 0D78 1D6                                       a=a-c   xs
 0D79 2A0     [J0591]                           set dec
 0D7A 13A                                       a=a+b   m
 0D7B 260                                       set hex
 0D7C 1B6                                       a=a-1   xs
 0D7D 3E3                                       ?nc goto [J0591] -4 0D79
 0D7E 2A0                                       set dec
 0D7F 05A                                       c=0     m
 0D80 2FC                                       ? rcr 13
 0D81 01C                                       pt= 3
 0D82 102                                       a=c     p
 0D83 190                                       lc 6
 0D84 21A                                       c=a+c   m
 0D85 23A                                       c=c+1   m
 0D86 35C                                       pt= 12
 0D87 350                                       lc 13
 0D88 2D0                                       lc 11
 0D89 11C                                       pt= 8
 0D8A 3D0                                       lc 15
 0D8B 3D0                                       lc 15
 0D8C 290                                       lc 10
 0D8D 2D0                                       lc 11
 0D8E 2DC     [J0590]                           pt= 13
 0D8F 3D0                                       lc 15
 0D90 10E                                       a=c     w
 0D91 3B5 02C                                   ?nc call [J0592] 0BED
 0D93 02B                                       ?nc goto [J0593] +5 0D98
 0D94 2A9 00C                                   ?nc call [J0020] 03AA
 0D96 225 058 [J0589]                           ?nc call [J0594] 1689
 0D98 21C     [J0593]                           pt= 2
 0D99 210                                       lc 8
 0D9A 266     [J0595]                           c=c-1   x
 0D9B 3FB                                       ?nc goto [J0595] -1 0D9A
 0D9C 2CD 040                                   ?nc call [J0133] 10B3
 0D9E 063                                       ?nc goto [J0253] +12 0DAA
 0D9F 2BE                                       c=-c-1  s
 0DA0 275 001                                   ?c  call [J0390] 009D
 0DA2 23D 018                                   ?nc call [J0202] 068F
 0DA4 2FE                                       ? c<>0  s
 0DA5 02B                                       ?nc goto [J0253] +5 0DAA
 0DA6 2FA                                       ? c<>0  m
 0DA7 01B                                       ?nc goto [J0253] +3 0DAA
 0DA8 311 02C                                   ?nc call [J0135] 0BC4
 0DAA 195 002 [J0253]                           ?nc goto [J0057] 0065
 0DAC 04E                                       c=0     w
 0DAD 09B                                       ?nc goto [J0596] +19 0DC0
 0DAE 2B5 040                                   ?nc call [J0597] 10AD
 0DB0 0B0                                       c=n
 0DB1 085 01C                                   ?nc call [J0321] 0721
 0DB3 005 016 [J0600]                           ?nc goto [J0598] 0501
 0DB5 2B5 040                                   ?nc call [J0597] 10AD
 0DB7 3B8                                       rdreg 14
 0DB8 0B0                                       c=n
 0DB9 0E9 01C                                   ?nc call [J0599] 073A
 0DBB 3C3                                       ?nc goto [J0600] -8 0DB3
 0DBC 275 040                                   ?nc call [J0178] 109D
 0DBE 209 018                                   ?nc call [J0373] 0682
 0DC0 0EE     [J0596]                           bc ex   w
 0DC1 0CE                                       c=b     w
 0DC2 121 038                                   ?nc call [J0447] 0E48
 0DC4 0B0                                       c=n
 0DC5 2F0                                       data=c
 0DC6 275 040                                   ?nc call [J0178] 109D
 0DC8 04E                                       c=0     w
 0DC9 0EE                                       bc ex   w
 0DCA 3E8                                       wrreg 15
 0DCB 201 038                                   ?nc call [J0601] 0E80
 0DCD 0EE                                       bc ex   w
 0DCE 04E                                       c=0     w
 0DCF 093                                       ?nc goto [J0602] +18 0DE1
 0DD0 1F1 038                                   ?nc call [J0603] 0E7C
 0DD2 0EE                                       bc ex   w
 0DD3 0B0                                       c=n
 0DD4 2FE                                       ? c<>0  s
 0DD5 04F                                       ?c  goto [J0604] +9 0DDE
 0DD6 2A5 038                                   ?nc call [J0605] 0EA9
 0DD8 266                                       c=c-1   x
 0DD9 01B                                       ?nc goto [J0606] +3 0DDC
 0DDA 046                                       c=0     x
 0DDB 3DA                                       c sr    m
 0DDC 2E6     [J0606]                           ? c<>0  x
 0DDD 023                                       ?nc goto [J0602] +4 0DE1
 0DDE 15C     [J0604]                           pt= 6
 0DDF 2CD 04E [J0609]                           ?nc goto [J0087] 13B3
 0DE1 35C     [J0602]                           pt= 12
 0DE2 0AA                                       ac ex   wp
 0DE3 0DC                                       pt= 10
 0DE4 34A                                       ? a<>0  wp
 0DE5 3CF                                       ?c  goto [J0604] -7 0DDE
 0DE6 0AA                                       ac ex   wp
 0DE7 0EE                                       bc ex   w
 0DE8 0AE                                       ac ex   w
 0DE9 37C     [J0607]                           ? rcr 12
 0DEA 1B6                                       a=a-1   xs
 0DEB 3F3                                       ?nc goto [J0607] -2 0DE9
 0DEC 2F0     [J0318]                           data=c
 0DED 1D1 016                                   ?nc goto [J0494] 0574
 0DEF 2FE     [J0501]                           ? c<>0  s
 0DF0 01B                                       ?nc goto [J0608] +3 0DF3
 0DF1 21C     [J0407]                           pt= 2
 0DF2 36B                                       ?nc goto [J0609] -19 0DDF
 0DF3 379 028 [J0608]                           ?nc call [J0184] 0ADE
 0DF5 35E                                       ? a<>0  s
 0DF6 01B                                       ?nc goto [J0610] +3 0DF9
 0DF7 39C     [J0363]                           pt= 0
 0DF8 33B                                       ?nc goto [J0609] -25 0DDF
 0DF9 03E     [J0610]                           b=0     s
 0DFA 0CE                                       c=b     w
 0DFB 06E                                       ab ex   w
 0DFC 1EE                                       c=c+c   w
 0DFD 1EE                                       c=c+c   w
 0DFE 20E                                       c=a+c   w
 0DFF 0EE                                       bc ex   w
 0E00 05A                                       c=0     m
 0E01 10E                                       a=c     w
 0E02 1EE                                       c=c+c   w
 0E03 1E6                                       c=c+c   x
 0E04 013                                       ?nc goto [J0611] +2 0E06
 0E05 2BA                                       c=-c-1  m
 0E06 14E     [J0611]                           a=a+c   w
 0E07 39C                                       pt= 0
 0E08 342                                       ? a<>0  p
 0E09 017                                       ?c  goto [J0612] +2 0E0B
 0E0A 3AE                                       b sr    w
 0E0B 38E     [J0612]                           a sr    w
 0E0C 04E                                       c=0     w
 0E0D 06E                                       ab ex   w
 0E0E 2DC                                       pt= 13
 0E0F 150                                       lc 5
 0E10 3CE                                       c sr    w
 0E11 053                                       ?nc goto [J0613] +10 0E1B
 0E12 222     [J0614]                           c=c+1   p
 0E13 1CE     [J0616]                           a=a-c   w
 0E14 3F3                                       ?nc goto [J0614] -2 0E12
 0E15 14E                                       a=a+c   w
 0E16 3EE                                       a sl    w
 0E17 394                                       ? pt= 0
 0E18 37D 01B                                   ?c  goto [J0615] 06DF
 0E1A 3D4                                       dec pt
 0E1B 3CA     [J0613]                           c sr    wp
 0E1C 3BB                                       ?nc goto [J0616] -9 0E13
 0E1D 386     [J0341]                           a sr    x
 0E1E 130 0E3                                   ldi 0E3
 0E20 146                                       a=a+c   x
 0E21 31C     [J0617]                           pt= 1
 0E22 162                                       a=a+1   p
 0E23 3B8                                       rdreg 14
 0E24 3C6                                       c sr    x
 0E25 276                                       c=c-1   xs
 0E26 3C6                                       c sr    x
 0E27 30A                                       ? a<c   wp
 0E28 379 036 [J0620]                           ?nc goto [J0604] 0DDE
 0E2A 0A6     [J0618]                           ac ex   x
 0E2B 056                                       c=0     xs
 0E2C 270     [J0619]                           sel ram
 0E2D 3E0                                       rtn

 0E2E 0AE     [J0334]                           ac ex   w
 0E2F 3C6                                       c sr    x
 0E30 31C     [J0301]                           pt= 1
 0E31 390                                       lc 14
 0E32 10E                                       a=c     w
 0E33 130 007                                   ldi 007
 0E35 1C2                                       a=a-c   p
 0E36 35B                                       ?nc goto [J0617] -21 0E21
 0E37 142                                       a=a+c   p
 0E38 1A2                                       a=a-1   p
 0E39 38B                                       ?nc goto [J0618] -15 0E2A
 0E3A 130 0E6                                   ldi 0E6
 0E3C 383                                       ?nc goto [J0619] -16 0E2C
 0E3D 0A6     [J0305]                           ac ex   x
 0E3E 31C                                       pt= 1
 0E3F 390                                       lc 14
 0E40 2A2                                       c=-c-1  p
 0E41 35F                                       ?c  goto [J0619] -21 0E2C
 0E42 341 01C [J0457]                           ?nc call [J0472] 07D0
 0E44 023                                       ?nc goto [J0447] +4 0E48
 0E45 2A5 040 [J0441]                           ?nc call [J0413] 10A9
 0E47 1B8                                       rdreg 6
 0E48 2FE     [J0447]                           ? c<>0  s
 0E49 2FF                                       ?c  goto [J0620] -33 0E28
 0E4A 266                                       c=c-1   x
 0E4B 01B                                       ?nc goto [J0621] +3 0E4E
 0E4C 046                                       c=0     x
 0E4D 3DA                                       c sr    m
 0E4E 0DC     [J0621]                           pt= 10
 0E4F 2EA                                       ? c<>0  wp
 0E50 2C7                                       ?c  goto [J0620] -40 0E28
 0E51 130 008                                   ldi 008
 0E53 355 040                                   ?nc call [J0436] 10D5
 0E55 05A                                       c=0     m
 0E56 05E                                       c=0     s
 0E57 23E                                       c=c+1   s
 0E58 3CE                                       c sr    w
 0E59 236                                       c=c+1   xs
 0E5A 3CE                                       c sr    w
 0E5B 260     [J0622]                           set hex
 0E5C 166                                       a=a+1   x
 0E5D 2A0                                       set dec
 0E5E 1DA                                       a=a-c   m
 0E5F 3E3                                       ?nc goto [J0622] -4 0E5B
 0E60 260                                       set hex
 0E61 246                                       c=a-c   x
 0E62 06B                                       ?nc goto [J0623] +13 0E6F
 0E63 0A6                                       ac ex   x
 0E64 106                                       a=c     x
 0E65 31C                                       pt= 1
 0E66 342                                       ? a<>0  p
 0E67 07F                                       ?c  goto [J0624] +15 0E76
 0E68 130 00A                                   ldi 00A
 0E6A 24A                                       c=a-c   wp
 0E6B 05B                                       ?nc goto [J0624] +11 0E76
 0E6C 130 006                                   ldi 006
 0E6E 043                                       ?nc goto [J0624] +8 0E76
 0E6F 2E6     [J0623]                           ? c<>0  x
 0E70 2F7                                       ?c  goto [J0621] -34 0E4E
 0E71 130 01D                                   ldi 01D
 0E73 106                                       a=c     x
 0E74 130 00B                                   ldi 00B
 0E76 31C     [J0624]                           pt= 1
 0E77 262                                       c=c-1   p
 0E78 262                                       c=c-1   p
 0E79 270                                       sel ram
 0E7A 038                                       rdreg 0
 0E7B 113                                       ?nc goto [J0625] +34 0E9D
 0E7C 275 040 [J0603]                           ?nc call [J0178] 109D
 0E7E 121 038                                   ?nc call [J0447] 0E48
 0E80 260     [J0601]                           set hex
 0E81 130 009                                   ldi 009
 0E83 1C6                                       a=a-c   x
 0E84 39C                                       pt= 0
 0E85 1D0                                       lc 7
 0E86 0E6                                       bc ex   x
 0E87 0C6                                       c=b     x
 0E88 31C                                       pt= 1
 0E89 013                                       ?nc goto [J0626] +2 0E8B
 0E8A 226     [J0627]                           c=c+1   x
 0E8B 18A     [J0626]                           a=a-b   wp
 0E8C 3F3                                       ?nc goto [J0627] -2 0E8A
 0E8D 12A                                       a=a+b   wp
 0E8E 31C                                       pt= 1
 0E8F 390                                       lc 14
 0E90 270                                       sel ram
 0E91 038                                       rdreg 0
 0E92 0AE                                       ac ex   w
 0E93 21C                                       pt= 2
 0E94 190                                       lc 6
 0E95 39C                                       pt= 0
 0E96 02B                                       ?nc goto [J0628] +5 0E9B
 0E97 0AE     [J0629]                           ac ex   w
 0E98 37C                                       ? rcr 12
 0E99 0AE                                       ac ex   w
 0E9A 276                                       c=c-1   xs
 0E9B 26A     [J0628]                           c=c-1   wp
 0E9C 3DB                                       ?nc goto [J0629] -5 0E97
 0E9D 2A0     [J0625]                           set dec
 0E9E 3E0                                       rtn

 0E9F 01E     [J0681]                           a=0     s
 0EA0 0DC                                       pt= 10
 0EA1 00A                                       a=0     wp
 0EA2 35C                                       pt= 12
 0EA3 342                                       ? a<>0  p
 0EA4 01F                                       ?c  goto [J0630] +3 0EA7
 0EA5 3FA                                       a sl    m
 0EA6 013                                       ?nc goto [J0631] +2 0EA8
 0EA7 166     [J0630]                           a=a+1   x
 0EA8 0AE     [J0631]                           ac ex   w
 0EA9 35C     [J0605]                           pt= 12
 0EAA 2C8                                       s=1 13
 0EAB 2EE                                       ? c<>0  w
 0EAC 02B                                       ?nc goto [J0632] +5 0EB1
 0EAD 2C4                                       s=0 13
 0EAE 262                                       c=c-1   p
 0EAF 2EE                                       ? c<>0  w
 0EB0 013                                       ?nc goto [J0633] +2 0EB2
 0EB1 222     [J0632]                           c=c+1   p
 0EB2 3E0     [J0633]                           rtn

 0EB3 0B0     [J0794]                           c=n
 0EB4 128                                       wrreg 4
 0EB5 2CD 040                                   ?nc call [J0133] 10B3
 0EB7 044                                       s=0 4
 0EB8 011 03C                                   ?nc call [J0634] 0F04
 0EBA 06E                                       ab ex   w
 0EBB 0D9 03C                                   ?nc call [J0635] 0F36
 0EBD 0AE                                       ac ex   w
 0EBE 0F0                                       c<>n
 0EBF 198                                       c=m
 0EC0 36E                                       ? a<>c  w
 0EC1 1E7                                       ?c  goto [J0636] +60 0EFD
 0EC2 1A0                                       clear abc
 0EC3 21C                                       pt= 2
 0EC4 310                                       lc 12
 0EC5 106                                       a=c     x
 0EC6 226                                       c=c+1   x
 0EC7 0E6                                       bc ex   x
 0EC8 130 018                                   ldi 018
 0ECA 27C                                       ? rcr 9
 0ECB 0BA                                       ac ex   m
 0ECC 023                                       ?nc goto [J0637] +4 0ED0
 0ECD 23A     [J0639]                           c=c+1   m
 0ECE 37A                                       ? a<>c  m
 0ECF 033                                       ?nc goto [J0638] +6 0ED5
 0ED0 330     [J0637]                           cxisa
 0ED1 146                                       a=a+c   x
 0ED2 3DB                                       ?nc goto [J0639] -5 0ECD
 0ED3 126                                       a=a+b   x
 0ED4 3CB                                       ?nc goto [J0639] -7 0ECD
 0ED5 186     [J0638]                           a=a-b   x
 0ED6 346                                       ? a<>0  x
 0ED7 10F                                       ?c  goto [J0640] +33 0EF8
 0ED8 048                                       s=1 4
 0ED9 011 03C                                   ?nc call [J0634] 0F04
 0EDB 06E                                       ab ex   w
 0EDC 0B0                                       c=n
 0EDD 1CE                                       a=a-c   w
 0EDE 04E                                       c=0     w
 0EDF 23A                                       c=c+1   m
 0EE0 130 1F3                                   ldi 1F3
 0EE2 2A6                                       c=-c-1  x
 0EE3 36E                                       ? a<>c  w
 0EE4 0CF                                       ?c  goto [J0636] +25 0EFD
 0EE5 0D9 03C                                   ?nc call [J0635] 0F36
 0EE7 10E                                       a=c     w
 0EE8 198                                       c=m
 0EE9 36E                                       ? a<>c  w
 0EEA 09F                                       ?c  goto [J0636] +19 0EFD
 0EEB 04E                                       c=0     w
 0EEC 270                                       sel ram
 0EED 138                                       rdreg 4
 0EEE 070                                       n=c
 0EEF 04E                                       c=0     w
 0EF0 26E                                       c=c-1   w
 0EF1 268                                       wrreg 9
 0EF2 2A8                                       wrreg 10
 0EF3 3CC                                       ? kb
 0EF4 3A0                                       ?nc rtn
 0EF5 084                                       s=0 5
 0EF6 0A9 002                                   ?nc goto [J0004] 002A
 0EF8 04E     [J0640]                           c=0     w
 0EF9 226                                       c=c+1   x
 0EFA 226     [J0642]                           c=c+1   x
 0EFB 23C                                       ? rcr 2
 0EFC 023                                       ?nc goto [J0641] +4 0F00
 0EFD 04E     [J0636]                           c=0     w
 0EFE 3E3                                       ?nc goto [J0642] -4 0EFA
 0EFF 04E     [J0643]                           c=0     w
 0F00 25C     [J0641]                           pt= 9
 0F01 0F0                                       c<>n
 0F02 2CD 04E                                   ?nc goto [J0087] 13B3
 0F04 1A0     [J0634]                           clear abc
 0F05 0D9 03C                                   ?nc call [J0635] 0F36
 0F07 0F0                                       c<>n
 0F08 0F0                                       c<>n
 0F09 1D8                                       c<>m
 0F0A 1D8                                       c<>m
 0F0B 0D8                                       c<>g
 0F0C 0D8                                       c<>g
 0F0D 3D8                                       c<>s
 0F0E 3D8                                       c<>s
 0F0F 0EE                                       bc ex   w
 0F10 06E                                       ab ex   w
 0F11 0D9 03C                                   ?nc call [J0635] 0F36
 0F13 1CE                                       a=a-c   w
 0F14 34E                                       ? a<>0  w
 0F15 357                                       ?c  goto [J0643] -22 0EFF
 0F16 158                                       m=c
 0F17 04E                                       c=0     w
 0F18 130 007                                   ldi 007
 0F1A 270     [J0645]                           sel ram
 0F1B 0EE                                       bc ex   w
 0F1C 038                                       rdreg 0
 0F1D 14E                                       a=a+c   w
 0F1E 0AE                                       ac ex   w
 0F1F 04C                                       ? s=0 4
 0F20 09F                                       ?c  goto [J0644] +19 0F33
 0F21 12E                                       a=a+b   w
 0F22 0AE     [J0646]                           ac ex   w
 0F23 1D8                                       c<>m
 0F24 2F0                                       data=c
 0F25 04E                                       c=0     w
 0F26 038                                       rdreg 0
 0F27 1D8                                       c<>m
 0F28 2F0                                       data=c
 0F29 130 0E0                                   ldi 0E0
 0F2B 0AE                                       ac ex   w
 0F2C 0EE                                       bc ex   w
 0F2D 366                                       ? a<>c  x
 0F2E 3A0                                       ?nc rtn
 0F2F 06E                                       ab ex   w
 0F30 266                                       c=c-1   x
 0F31 056                                       c=0     xs
 0F32 343                                       ?nc goto [J0645] -24 0F1A
 0F33 18E     [J0644]                           a=a-b   w
 0F34 000                                       nop
 0F35 36B                                       ?nc goto [J0646] -19 0F22
 0F36 2DC     [J0635]                           pt= 13
 0F37 150     [J0647]                           lc 5
 0F38 2D4                                       ? pt= 13
 0F39 3F3                                       ?nc goto [J0647] -2 0F37
 0F3A 04C                                       ? s=0 4
 0F3B 3A0                                       ?nc rtn
 0F3C 1EE                                       c=c+c   w
 0F3D 3E0                                       rtn

 0F3E 1B8     [J0559]                           rdreg 6
 0F3F 25C                                       pt= 9
 0F40 04A                                       c=0     wp
 0F41 0B9 030                                   ?nc call [J0648] 0C2E
 0F43 119 03C                                   ?nc call [J0570] 0F46
 0F45 07B                                       ?nc goto [J0649] +15 0F54
 0F46 0D0     [J0570]                           lc 3
 0F47 010                                       lc 0
 0F48 34C                                       ? s=0 12
 0F49 027                                       ?c  goto [J0650] +4 0F4D
 0F4A 190                                       lc 6
 0F4B 29C                                       pt= 7
 0F4C 050                                       lc 1
 0F4D 266     [J0650]                           c=c-1   x
 0F4E 3E0                                       rtn

 0F4F 029 030                                   ?nc call [J0557] 0C0A
 0F51 1E6     [J0558]                           c=c+c   x
 0F52 07D 030                                   ?nc call [J0569] 0C1F
 0F54 085 01C [J0649]                           ?nc call [J0321] 0721
 0F56 0AB                                       ?nc goto [J0568] +21 0F6B
 0F57 1B8     [J0560]                           rdreg 6
 0F58 29C                                       pt= 7
 0F59 04A                                       c=0     wp
 0F5A 0AE                                       ac ex   w
 0F5B 051 030                                   ?nc call [J0651] 0C14
 0F5D 09B                                       ?nc goto [J0652] +19 0F70
 0F5E 128     [J0554]                           wrreg 4
 0F5F 178                                       rdreg 5
 0F60 2BE     [J0567]                           c=-c-1  s
 0F61 057                                       ?c  goto [J0568] +10 0F6B
 0F62 145 03C [J0565]                           ?nc call [J0558] 0F51
 0F64 041 030                                   ?nc call [J0399] 0C10
 0F66 0AE                                       ac ex   w
 0F67 181 03C                                   ?nc call [J0567] 0F60
 0F69 131 01C                                   ?nc call [J0653] 074C
 0F6B 379 040 [J0568]                           ?nc call [J0654] 10DE
 0F6D 1E1 040                                   ?nc call [J0655] 1078
 0F6F 0AE                                       ac ex   w
 0F70 138     [J0652]                           rdreg 4
 0F71 23D 018 [J0581]                           ?nc call [J0202] 068F
 0F73 128                                       wrreg 4
 0F74 10E                                       a=c     w
 0F75 3E0                                       rtn

 0F76 0B0     [J0662]                           c=n
 0F77 2FA                                       ? c<>0  m
 0F78 093                                       ?nc goto [J0656] +18 0F8A
 0F79 379 028                                   ?nc call [J0184] 0ADE
 0F7B 35D 04C                                   ?nc call [J0047] 13D7
 0F7D 36D 040                                   ?nc call [J0460] 10DB
 0F7F 2BE                                       c=-c-1  s
 0F80 10E                                       a=c     w
 0F81 3F8                                       rdreg 15
 0F82 226                                       c=c+1   x
 0F83 226                                       c=c+1   x
 0F84 1B9 01C                                   ?nc call [J0324] 076E
 0F86 2FA                                       ? c<>0  m
 0F87 01B                                       ?nc goto [J0656] +3 0F8A
 0F88 2F6                                       ? c<>0  xs
 0F89 0F3                                       ?nc goto [J0657] +30 0FA7
 0F8A 148     [J0656]                           s=1 6
 0F8B 2A5 048                                   ?nc call [J0658] 12A9
 0F8D 005 01C                                   ?nc call [J0198] 0701
 0F8F 2F8                                       rdreg 11
 0F90 2BE                                       c=-c-1  s
 0F91 245 019                                   ?c  call [J0029] 0691
 0F93 35E                                       ? a<>0  s
 0F94 3A0                                       ?nc rtn
 0F95 093                                       ?nc goto [J0657] +18 0FA7
 0F96 10E     [J0661]                           a=c     w
 0F97 0B0                                       c=n
 0F98 0E9 01C                                   ?nc call [J0599] 073A
 0F9A 219 018                                   ?nc call [J0371] 0686
 0F9C 1FD 040                                   ?nc call [J0199] 107F
 0F9E 193                                       ?nc goto [J0659] +50 0FD0
 0F9F 0B0     [J0516]                           c=n
 0FA0 271 040                                   ?nc call [J0016] 109C
 0FA2 2BE                                       c=-c-1  s
 0FA3 23D 019                                   ?c  call [J0202] 068F
 0FA5 2FE                                       ? c<>0  s
 0FA6 01F                                       ?c  goto [J0660] +3 0FA9
 0FA7 1A0     [J0657]                           clear abc
 0FA8 3E0                                       rtn

 0FA9 3F8     [J0660]                           rdreg 15
 0FAA 0CC                                       ? s=0 10
 0FAB 35B                                       ?nc goto [J0661] -21 0F96
 0FAC 18C                                       ? s=0 11
 0FAD 24F                                       ?c  goto [J0662] -55 0F76
 0FAE 1BD 040                                   ?nc call [J0181] 106F
 0FB0 3F8                                       rdreg 15
 0FB1 245 018                                   ?nc call [J0029] 0691
 0FB3 328                                       wrreg 12
 0FB4 201 018                                   ?nc call [J0663] 0680
 0FB6 01D 01C                                   ?nc call [J0219] 0707
 0FB8 35D 04C                                   ?nc call [J0047] 13D7
 0FBA 275 040                                   ?nc call [J0178] 109D
 0FBC 3E1 03C                                   ?nc call [J0535] 0FF8
 0FBE 0B0                                       c=n
 0FBF 2BE                                       c=-c-1  s
 0FC0 245 019                                   ?c  call [J0029] 0691
 0FC2 211 018                                   ?nc call [J0664] 0684
 0FC4 03D 01C                                   ?nc call [J0665] 070F
 0FC6 1FD 040                                   ?nc call [J0199] 107F
 0FC8 28D 000                                   ?nc call [J0193] 00A3
 0FCA 24D 018                                   ?nc call [J0189] 0693
 0FCC 049 048                                   ?nc call [J0372] 1212
 0FCE 1F1 01C                                   ?nc call [J0191] 077C
 0FD0 35D 04C [J0659]                           ?nc call [J0047] 13D7
 0FD2 185 018                                   ?nc call [J0666] 0661
 0FD4 049 048 [J0216]                           ?nc call [J0372] 1212
 0FD6 095 01E                                   ?nc goto [J0195] 0725
 0FD8 04E     [J0796]                           c=0     w
 0FD9 270                                       sel ram
 0FDA 2F0                                       data=c
 0FDB 068                                       wrreg 1
 0FDC 0A8                                       wrreg 2
 0FDD 130 0E0                                   ldi 0E0
 0FDF 39C     [J0335]                           pt= 0
 0FE0 260                                       set hex
 0FE1 00E                                       a=0     w
 0FE2 229 000 [J0668]                           ?nc call [J0667] 008A
 0FE4 222                                       c=c+1   p
 0FE5 3EB                                       ?nc goto [J0668] -3 0FE2
 0FE6 3E0                                       rtn

 0FE7 0B0     [J0438]                           c=n
 0FE8 24C     [J0214]                           ? s=0 9
 0FE9 360                                       ?c rtn
 0FEA 013                                       ?nc goto [J0487] +2 0FEC
 0FEB 0B0     [J0515]                           c=n
 0FEC 158     [J0487]                           m=c
 0FED 04E                                       c=0     w
 0FEE 270                                       sel ram
 0FEF 078                                       rdreg 1
 0FF0 0A8                                       wrreg 2
 0FF1 04E                                       c=0     w
 0FF2 270                                       sel ram
 0FF3 038                                       rdreg 0
 0FF4 068                                       wrreg 1
 0FF5 198                                       c=m
 0FF6 028                                       wrreg 0
 0FF7 3E0                                       rtn

 0FF8 10E     [J0535]                           a=c     w
 0FF9 23D 01A                                   ?nc goto [J0202] 068F
 0FFB 23C     [J0669]                           ? rcr 2
 0FFC 1B6     [J0144]                           a=a-1   xs
 0FFD 3F3                                       ?nc goto [J0669] -2 0FFB
 0FFE 0A6                                       ac ex   x
 0FFF 3E0                                       rtn

 1000 349 040                                   ?nc call [J0182] 10D2
 1002 2B8                                       rdreg 10
 1003 0FB                                       ?nc goto [J0670] +31 1022
 1004 3B1 03C                                   ?nc call [J0487] 0FEC
 1006 1A9 002                                   ?nc goto [J0671] 006A
 1008 235 040                                   ?nc call [J0368] 108D
 100A 0F8                                       rdreg 3
 100B 0AE                                       ac ex   w
 100C 2FA                                       ? c<>0  m
 100D 3C5 036                                   ?nc goto [J0407] 0DF1
 100F 1B9 01C                                   ?nc call [J0324] 076E
 1011 245 040                                   ?nc call [J0504] 1091
 1013 235 040                                   ?nc call [J0368] 108D
 1015 078                                       rdreg 1
 1016 0E9 01C                                   ?nc call [J0599] 073A
 1018 0F9 002                                   ?nc goto [J0171] 003E
 101A 349 040                                   ?nc call [J0182] 10D2
 101C 178                                       rdreg 5
 101D 379 028                                   ?nc call [J0184] 0ADE
 101F 078                                       rdreg 1
 1020 291 01C                                   ?nc call [J0672] 07A4
 1022 1C5 016 [J0670]                           ?nc goto [J0673] 0571
 1024 151 018                                   ?nc call [J0674] 0654
 1026 35D 04C                                   ?nc call [J0047] 13D7
 1028 0B0                                       c=n
 1029 0AE                                       ac ex   w
 102A 349 040                                   ?nc call [J0182] 10D2
 102C 085 01C                                   ?nc call [J0321] 0721
 102E 0F8                                       rdreg 3
 102F 33D 04C                                   ?nc call [J0675] 13CF
 1031 1B5 018                                   ?nc call [J0497] 066D
 1033 3B9 04C                                   ?nc call [J0676] 13EE
 1035 349 040                                   ?nc call [J0182] 10D2
 1037 078                                       rdreg 1
 1038 09B                                       ?nc goto [J0677] +19 104B
 1039 331 04C                                   ?nc call [J0678] 13CC
 103B 0B0                                       c=n
 103C 0AE                                       ac ex   w
 103D 349 040                                   ?nc call [J0182] 10D2
 103F 085 01C                                   ?nc call [J0321] 0721
 1041 078                                       rdreg 1
 1042 33D 04C                                   ?nc call [J0675] 13CF
 1044 151 018                                   ?nc call [J0674] 0654
 1046 3B9 04C                                   ?nc call [J0676] 13EE
 1048 349 040                                   ?nc call [J0182] 10D2
 104A 0F8                                       rdreg 3
 104B 08D 01C [J0677]                           ?nc call [J0389] 0723
 104D 1E9 018                                   ?nc call [J0211] 067A
 104F 049 048                                   ?nc call [J0372] 1212
 1051 299 01C                                   ?nc call [J0500] 07A6
 1053 289 01C                                   ?nc call [J0499] 07A2
 1055 335 040                                   ?nc call [J0490] 10CD
 1057 0AE                                       ac ex   w
 1058 128                                       wrreg 4
 1059 331 04C                                   ?nc call [J0678] 13CC
 105B 125 018                                   ?nc call [J0498] 0649
 105D 351 03C                                   ?nc call [J0216] 0FD4
 105F 3BD 034                                   ?nc call [J0501] 0DEF
 1061 35D 04C                                   ?nc call [J0047] 13D7
 1063 151 018                                   ?nc call [J0674] 0654
 1065 049 048                                   ?nc call [J0372] 1212
 1067 299 01C                                   ?nc call [J0500] 07A6
 1069 02D 044                                   ?nc call [J0018] 110B
 106B 3B1 03C                                   ?nc call [J0487] 0FEC
 106D 138                                       rdreg 4
 106E 3E0                                       rtn

 106F 379 040 [J0181]                           ?nc call [J0654] 10DE
 1071 369 01A                                   ?nc goto [J0577] 06DA
 1073 349 040 [J0217]                           ?nc call [J0182] 10D2
 1075 3F8                                       rdreg 15
 1076 379 040 [J0203]                           ?nc call [J0654] 10DE
 1078 198     [J0655]                           c=m
 1079 3D4                                       dec pt
 107A 04A                                       c=0     wp
 107B 37D 01A                                   ?nc goto [J0615] 06DF
 107D 08C     [J0853]                           ? s=0 5
 107E 3A0                                       ?nc rtn
 107F 0BE     [J0199]                           ac ex   s
 1080 2BE                                       c=-c-1  s
 1081 0BE                                       ac ex   s
 1082 3E0                                       rtn

 1083 245 018 [J0856]                           ?nc call [J0029] 0691
 1085 01B                                       ?nc goto [J0679] +3 1088
 1086 23D 018 [J0854]                           ?nc call [J0202] 068F
 1088 02D 044 [J0679]                           ?nc call [J0018] 110B
 108A 2F0                                       data=c
 108B 35C                                       pt= 12
 108C 3E0                                       rtn

 108D 349 040 [J0368]                           ?nc call [J0182] 10D2
 108F 10E                                       a=c     w
 1090 3E0                                       rtn

 1091 02D 044 [J0504]                           ?nc call [J0018] 110B
 1093 10E                                       a=c     w
 1094 24C                                       ? s=0 9
 1095 01F                                       ?c  goto [J0680] +3 1098
 1096 3AD 03C                                   ?nc call [J0515] 0FEB
 1098 0AE     [J0680]                           ac ex   w
 1099 3B1 03E                                   ?nc goto [J0487] 0FEC
 109B 2BE     [J0419]                           c=-c-1  s
 109C 10E     [J0016]                           a=c     w
 109D 349 040 [J0178]                           ?nc call [J0182] 10D2
 109F 3F8                                       rdreg 15
 10A0 3E0                                       rtn

 10A1 115 038 [J0414]                           ?nc call [J0441] 0E45
 10A3 1D8     [J0263]                           c<>m
 10A4 201 038 [J0442]                           ?nc call [J0601] 0E80
 10A6 27D 038                                   ?nc call [J0681] 0E9F
 10A8 10E     [J0420]                           a=c     w
 10A9 339 040 [J0413]                           ?nc call [J0360] 10CE
 10AB 04E                                       c=0     w
 10AC 3E0                                       rtn

 10AD 04E     [J0597]                           c=0     w
 10AE 35C                                       pt= 12
 10AF 050                                       lc 1
 10B0 090                                       lc 2
 10B1 226                                       c=c+1   x
 10B2 353                                       ?nc goto [J0016] -22 109C
 10B3 04E     [J0133]                           c=0     w
 10B4 270                                       sel ram
 10B5 2DC                                       pt= 13
 10B6 0D0                                       lc 3
 10B7 110                                       lc 4
 10B8 090                                       lc 2
 10B9 310                                       lc 12
 10BA 010                                       lc 0
 10BB 2D0                                       lc 11
 10BC 010                                       lc 0
 10BD 310                                       lc 12
 10BE 268                                       wrreg 9
 10BF 04E                                       c=0     w
 10C0 25C                                       pt= 9
 10C1 210                                       lc 8
 10C2 010                                       lc 0
 10C3 3D0                                       lc 15
 10C4 210                                       lc 8
 10C5 2D0                                       lc 11
 10C6 010                                       lc 0
 10C7 090                                       lc 2
 10C8 2A8                                       wrreg 10
 10C9 2E0                                       disp off
 10CA 320                                       disp toggle
 10CB 030                                       disp blink
 10CC 053                                       ?nc goto [J0008] +10 10D6
 10CD 10E     [J0490]                           a=c     w
 10CE 04E     [J0360]                           c=0     w
 10CF 270     [J0682]                           sel ram
 10D0 038                                       rdreg 0
 10D1 3E0                                       rtn

 10D2 130 0E0 [J0182]                           ldi 0E0
 10D4 3DB                                       ?nc goto [J0682] -5 10CF
 10D5 10E     [J0436]                           a=c     w
 10D6 130 0F0 [J0008]                           ldi 0F0
 10D8 270                                       sel ram
 10D9 3B8     [J0683]                           rdreg 14
 10DA 3E0                                       rtn

 10DB 349 040 [J0460]                           ?nc call [J0182] 10D2
 10DD 3E3                                       ?nc goto [J0683] -4 10D9
 10DE 02E     [J0654]                           b=0     w
 10DF 0FA                                       bc ex   m
 10E0 0AE                                       ac ex   w
 10E1 2DC                                       pt= 13
 10E2 0CE                                       c=b     w
 10E3 1D8                                       c<>m
 10E4 06E                                       ab ex   w
 10E5 0CE                                       c=b     w
 10E6 2F6                                       ? c<>0  xs
 10E7 360                                       ?c rtn
 10E8 226                                       c=c+1   x
 10E9 2E6     [J0685]                           ? c<>0  x
 10EA 03B                                       ?nc goto [J0684] +7 10F1
 10EB 266                                       c=c-1   x
 10EC 3EE                                       a sl    w
 10ED 01E                                       a=0     s
 10EE 3D4                                       dec pt
 10EF 34E                                       ? a<>0  w
 10F0 3CF                                       ?c  goto [J0685] -7 10E9
 10F1 266     [J0684]                           c=c-1   x
 10F2 3E0                                       rtn

 10F3 275 040 [J0495]                           ?nc call [J0178] 109D
 10F5 2BE                                       c=-c-1  s
 10F6 10E                                       a=c     w
 10F7 3B8                                       rdreg 14
 10F8 085 01C                                   ?nc call [J0321] 0721
 10FA 00D 01C                                   ?nc call [J0686] 0703
 10FC 04E                                       c=0     w
 10FD 0D0                                       lc 3
 10FE 190                                       lc 6
 10FF 0CC                                       ? s=0 10
 1100 017                                       ?c  goto [J0687] +2 1102
 1101 150                                       lc 5
 1102 39C     [J0687]                           pt= 0
 1103 110                                       lc 4
 1104 1E9 01C                                   ?nc call [J0402] 077A
 1106 02B                                       ?nc goto [J0018] +5 110B
 1107 0EE     [J0201]                           bc ex   w
 1108 349 040                                   ?nc call [J0182] 10D2
 110A 0CE                                       c=b     w
 110B 2FA     [J0018]                           ? c<>0  m
 110C 017                                       ?c  goto [J0688] +2 110E
 110D 04E                                       c=0     w
 110E 2A0     [J0688]                           set dec
 110F 35C                                       pt= 12
 1110 2F6                                       ? c<>0  xs
 1111 033                                       ?nc goto [J0689] +6 1117
 1112 266                                       c=c-1   x
 1113 236                                       c=c+1   xs
 1114 276                                       c=c-1   xs
 1115 01B                                       ?nc goto [J0690] +3 1118
 1116 226                                       c=c+1   x
 1117 3E0     [J0689]                           rtn

 1118 1F6     [J0690]                           c=c+c   xs
 1119 01B                                       ?nc goto [J0691] +3 111C
 111A 04E                                       c=0     w
 111B 02B                                       ?nc goto [J0692] +5 1120
 111C 04A     [J0691]                           c=0     wp
 111D 26A                                       c=c-1   wp
 111E 056                                       c=0     xs
 111F 3D4                                       dec pt
 1120 3D4     [J0692]                           dec pt
 1121 3E0                                       rtn

 1122 379 028                                   ?nc call [J0184] 0ADE
 1124 284                                       s=0 7
 1125 104     [J0777]                           s=0 8
 1126 35E                                       ? a<>0  s
 1127 013                                       ?nc goto [J0693] +2 1129
 1128 108                                       s=1 8
 1129 01E     [J0693]                           a=0     s
 112A 01A                                       a=0     m
 112B 06E                                       ab ex   w
 112C 0CE                                       c=b     w
 112D 1E6                                       c=c+c   x
 112E 073                                       ?nc goto [J0694] +14 113C
 112F 0CE                                       c=b     w
 1130 35E                                       ? a<>0  s
 1131 07F                                       ?c  goto [J0695] +15 1140
 1132 2DC                                       pt= 13
 1133 3D4     [J0697]                           dec pt
 1134 094                                       ? pt= 5
 1135 1F5 047                                   ?c  goto [J0696] 117D
 1137 226                                       c=c+1   x
 1138 3DB                                       ?nc goto [J0697] -5 1133
 1139 30D 044 [J0709]                           ?nc call [J0698] 11C3
 113B 0D3                                       ?nc goto [J0699] +26 1155
 113C 2D1 044 [J0694]                           ?nc call [J0700] 11B4
 113E 15C                                       pt= 6
 113F 033                                       ?nc goto [J0701] +6 1145
 1140 06E     [J0695]                           ab ex   w
 1141 166                                       a=a+1   x
 1142 3AE                                       b sr    w
 1143 333                                       ?nc goto [J0693] -26 1129
 1144 23A     [J0702]                           c=c+1   m
 1145 18E     [J0701]                           a=a-b   w
 1146 3F3                                       ?nc goto [J0702] -2 1144
 1147 12E                                       a=a+b   w
 1148 3EE                                       a sl    w
 1149 266                                       c=c-1   x
 114A 0AB                                       ?nc goto [J0703] +21 115F
 114B 09C                                       pt= 5
 114C 2E2                                       ? c<>0  p
 114D 02B                                       ?nc goto [J0704] +5 1152
 114E 262                                       c=c-1   p
 114F 2E2                                       ? c<>0  p
 1150 0A7                                       ?c  goto [J0705] +20 1164
 1151 222                                       c=c+1   p
 1152 35C     [J0704]                           pt= 12
 1153 053                                       ?nc goto [J0706] +10 115D
 1154 222     [J0707]                           c=c+1   p
 1155 18E     [J0699]                           a=a-b   w
 1156 3F3                                       ?nc goto [J0707] -2 1154
 1157 12E                                       a=a+b   w
 1158 154                                       ? pt= 6
 1159 12F                                       ?c  goto [J0708] +37 117E
 115A 3EE                                       a sl    w
 115B 266                                       c=c-1   x
 115C 3D4                                       dec pt
 115D 0EE     [J0706]                           bc ex   w
 115E 2DB                                       ?nc goto [J0709] -37 1139
 115F 0AE     [J0703]                           ac ex   w
 1160 3FA                                       a sl    m
 1161 0AE                                       ac ex   w
 1162 2E2                                       ? c<>0  p
 1163 313                                       ?nc goto [J0701] -30 1145
 1164 04E     [J0705]                           c=0     w
 1165 35C                                       pt= 12
 1166 26A                                       c=c-1   wp
 1167 10E                                       a=c     w
 1168 21C                                       pt= 2
 1169 050                                       lc 1
 116A 10C                                       ? s=0 8
 116B 013                                       ?nc goto [J0710] +2 116D
 116C 2A6                                       c=-c-1  x
 116D 06E     [J0710]                           ab ex   w
 116E 10E                                       a=c     w
 116F 04C     [J0721]                           ? s=0 4
 1170 03B                                       ?nc goto [J0711] +7 1177
 1171 35D 04C                                   ?nc call [J0047] 13D7
 1173 219 018                                   ?nc call [J0371] 0686
 1175 3C1 04C                                   ?nc call [J0712] 13F0
 1177 28C     [J0711]                           ? s=0 7
 1178 01B                                       ?nc goto [J0713] +3 117B
 1179 2BE                                       c=-c-1  s
 117A 11E                                       a=c     s
 117B 3C5 01A [J0713]                           ?nc goto [J0714] 06F1
 117D 0EE     [J0696]                           bc ex   w
 117E 04C     [J0708]                           ? s=0 4
 117F 02B                                       ?nc goto [J0715] +5 1184
 1180 2A9 01C                                   ?nc call [J0716] 07AA
 1182 0AE                                       ac ex   w
 1183 06E                                       ab ex   w
 1184 2DC     [J0715]                           pt= 13
 1185 190                                       lc 6
 1186 09C                                       pt= 5
 1187 2FA     [J0720]                           ? c<>0  m
 1188 0E3                                       ?nc goto [J0717] +28 11A4
 1189 3DC                                       inc pt
 118A 2E2     [J0723]                           ? c<>0  p
 118B 02B                                       ?nc goto [J0718] +5 1190
 118C 262                                       c=c-1   p
 118D 08E                                       b=a     w
 118E 158                                       m=c
 118F 07B                                       ?nc goto [J0719] +15 119E
 1190 226     [J0718]                           c=c+1   x
 1191 38E                                       a sr    w
 1192 27E                                       c=c-1   s
 1193 3A3                                       ?nc goto [J0720] -12 1187
 1194 046                                       c=0     x
 1195 03C                                       ? rcr 3
 1196 162                                       a=a+1   p
 1197 06E                                       ab ex   w
 1198 10E                                       a=c     w
 1199 10C                                       ? s=0 8
 119A 14D 01D                                   ?c  call [J0451] 0753
 119C 29B                                       ?nc goto [J0721] -45 116F
 119D 3AE     [J0722]                           b sr    w
 119E 27E     [J0719]                           c=c-1   s
 119F 3F3                                       ?nc goto [J0722] -2 119D
 11A0 12E                                       a=a+b   w
 11A1 17E                                       a=a+1   s
 11A2 198                                       c=m
 11A3 33B                                       ?nc goto [J0723] -25 118A
 11A4 06E     [J0717]                           ab ex   w
 11A5 05A                                       c=0     m
 11A6 05E                                       c=0     s
 11A7 10E                                       a=c     w
 11A8 10C                                       ? s=0 8
 11A9 01B                                       ?nc goto [J0724] +3 11AC
 11AA 0F1 01C                                   ?nc call [J0725] 073C
 11AC 04C     [J0724]                           ? s=0 4
 11AD 01B                                       ?nc goto [J0726] +3 11B0
 11AE 35D 04C                                   ?nc call [J0047] 13D7
 11B0 211 018 [J0726]                           ?nc call [J0664] 0684
 11B2 22B                                       ?nc goto [J0711] -59 1177
 11B3 0EE     [J0770]                           bc ex   w
 11B4 35C     [J0700]                           pt= 12
 11B5 090                                       lc 2
 11B6 0D0                                       lc 3
 11B7 010                                       lc 0
 11B8 090                                       lc 2
 11B9 150                                       lc 5
 11BA 210                                       lc 8
 11BB 150                                       lc 5
 11BC 010                                       lc 0
 11BD 250                                       lc 9
 11BE 090                                       lc 2
 11BF 250                                       lc 9
 11C0 250                                       lc 9
 11C1 110                                       lc 4
 11C2 10B                                       ?nc goto [J0727] +33 11E3
 11C3 04E     [J0698]                           c=0     w
 11C4 354                                       ? pt= 12
 11C5 097                                       ?c  goto [J0728] +18 11D7
 11C6 27A                                       c=c-1   m
 11C7 110                                       lc 4
 11C8 23A                                       c=c+1   m
 11C9 0D4                                       ? pt= 10
 11CA 0DF                                       ?c  goto [J0729] +27 11E5
 11CB 254                                       ? pt= 9
 11CC 137                                       ?c  goto [J0730] +38 11F2
 11CD 114                                       ? pt= 8
 11CE 17F                                       ?c  goto [J0731] +47 11FD
 11CF 294                                       ? pt= 7
 11D0 1BF                                       ?c  goto [J0732] +55 1207
 11D1 154                                       ? pt= 6
 11D2 1E7                                       ?c  goto [J0733] +60 120E
 11D3 39C                                       pt= 0
 11D4 0D0                                       lc 3
 11D5 15C                                       pt= 6
 11D6 06B                                       ?nc goto [J0727] +13 11E3
 11D7 190     [J0728]                           lc 6
 11D8 250                                       lc 9
 11D9 0D0                                       lc 3
 11DA 050                                       lc 1
 11DB 110                                       lc 4
 11DC 1D0                                       lc 7
 11DD 050                                       lc 1
 11DE 210                                       lc 8
 11DF 010                                       lc 0
 11E0 150                                       lc 5
 11E1 190                                       lc 6
 11E2 35C                                       pt= 12
 11E3 0EE     [J0727]                           bc ex   w
 11E4 3E0                                       rtn

 11E5 0D0     [J0729]                           lc 3
 11E6 050                                       lc 1
 11E7 010                                       lc 0
 11E8 050                                       lc 1
 11E9 1D0                                       lc 7
 11EA 250                                       lc 9
 11EB 210                                       lc 8
 11EC 010                                       lc 0
 11ED 110                                       lc 4
 11EE 0D0                                       lc 3
 11EF 0D0                                       lc 3
 11F0 19C                                       pt= 11
 11F1 393                                       ?nc goto [J0727] -14 11E3
 11F2 11C     [J0730]                           pt= 8
 11F3 0D0                                       lc 3
 11F4 0D0                                       lc 3
 11F5 010                                       lc 0
 11F6 210                                       lc 8
 11F7 150                                       lc 5
 11F8 0D0                                       lc 3
 11F9 130 168                                   ldi 168
 11FB 0DC                                       pt= 10
 11FC 33B                                       ?nc goto [J0727] -25 11E3
 11FD 15C     [J0731]                           pt= 6
 11FE 0D0                                       lc 3
 11FF 0D0                                       lc 3
 1200 0D0                                       lc 3
 1201 010                                       lc 0
 1202 210                                       lc 8
 1203 0D0                                       lc 3
 1204 150                                       lc 5
 1205 25C                                       pt= 9
 1206 2EB                                       ?nc goto [J0727] -35 11E3
 1207 05C     [J0732]                           pt= 4
 1208 0D0                                       lc 3
 1209 0D0                                       lc 3
 120A 130 331                                   ldi 331
 120C 11C                                       pt= 8
 120D 2B3     [J0734]                           ?nc goto [J0727] -42 11E3
 120E 130 333 [J0733]                           ldi 333
 1210 29C                                       pt= 7
 1211 293                                       ?nc goto [J0727] -46 11E3
 1212 04E     [J0372]                           c=0     w
 1213 270                                       sel ram
 1214 0EE                                       bc ex   w
 1215 1D8                                       c<>m
 1216 1F8                                       rdreg 7
 1217 11A                                       a=c     m
 1218 09A                                       b=a     m
 1219 3BA                                       b sr    m
 121A 3BA                                       b sr    m
 121B 3BA                                       b sr    m
 121C 11C                                       pt= 8
 121D 0EA                                       bc ex   wp
 121E 0E6                                       bc ex   x
 121F 1E8                                       wrreg 7
 1220 138                                       rdreg 4
 1221 0EE                                       bc ex   w
 1222 178                                       rdreg 5
 1223 128                                       wrreg 4
 1224 1B8                                       rdreg 6
 1225 168                                       wrreg 5
 1226 0BA                                       ac ex   m
 1227 046                                       c=0     x
 1228 03C                                       ? rcr 3
 1229 0FE                                       bc ex   s
 122A 1D8                                       c<>m
 122B 313                                       ?nc goto [J0734] -30 120D
 122C 2FE                                       ? c<>0  s
 122D 06F                                       ?c  goto [J0735] +13 123A
 122E 2F6                                       ? c<>0  xs
 122F 05F                                       ?c  goto [J0735] +11 123A
 1230 10E                                       a=c     w
 1231 08E     [J0737]                           b=a     w
 1232 01C                                       pt= 3
 1233 3EE                                       a sl    w
 1234 38A                                       a sr    wp
 1235 35C                                       pt= 12
 1236 34A                                       ? a<>0  wp
 1237 023                                       ?nc goto [J0736] +4 123B
 1238 1A6                                       a=a-1   x
 1239 3C3                                       ?nc goto [J0737] -8 1231
 123A 19B     [J0735]                           ?nc goto [J0738] +51 126D
 123B 166     [J0736]                           a=a+1   x
 123C 306                                       ? a<c   x
 123D 01B                                       ?nc goto [J0739] +3 1240
 123E 236                                       c=c+1   xs
 123F 3E0                                       rtn

 1240 04E     [J0739]                           c=0     w
 1241 222                                       c=c+1   p
 1242 3CE                                       c sr    w
 1243 23E                                       c=c+1   s
 1244 0EE                                       bc ex   w
 1245 2C2     [J0745]                           ? b<>0  p
 1246 01B                                       ?nc goto [J0740] +3 1249
 1247 3AA                                       b sr    wp
 1248 226                                       c=c+1   x
 1249 00E     [J0740]                           a=0     w
 124A 1C2                                       a=a-c   p
 124B 023                                       ?nc goto [J0741] +4 124F
 124C 3EE                                       a sl    w
 124D 12E     [J0742]                           a=a+b   w
 124E 3FB                                       ?nc goto [J0742] -1 124D
 124F 1DE     [J0741]                           a=a-c   s
 1250 033                                       ?nc goto [J0743] +6 1256
 1251 38A                                       a sr    wp
 1252 16E                                       a=a+1   w
 1253 226                                       c=c+1   x
 1254 12E     [J0744]                           a=a+b   w
 1255 3FB                                       ?nc goto [J0744] -1 1254
 1256 06A     [J0743]                           ab ex   wp
 1257 262                                       c=c-1   p
 1258 36B                                       ?nc goto [J0745] -19 1245
 1259 27E                                       c=c-1   s
 125A 35B                                       ?nc goto [J0745] -21 1245
 125B 3EE                                       a sl    w
 125C 086                                       b=a     x
 125D 05A                                       c=0     m
 125E 05E                                       c=0     s
 125F 12A                                       a=a+b   wp
 1260 14E                                       a=a+c   w
 1261 0BA                                       ac ex   m
 1262 3E0                                       rtn

 1263 048     [J0452]                           s=1 4
 1264 01B                                       ?nc goto [J0746] +3 1267
 1265 379 028 [J0366]                           ?nc call [J0184] 0ADE
 1267 148     [J0746]                           s=1 6
 1268 2DA                                       ? b<>0  m
 1269 07F                                       ?c  goto [J0747] +15 1278
 126A 049 048                                   ?nc call [J0372] 1212
 126C 2FA                                       ? c<>0  m
 126D 3DD 036 [J0738]                           ?nc goto [J0363] 0DF7
 126F 198                                       c=m
 1270 2FE                                       ? c<>0  s
 1271 3E7                                       ?c  goto [J0738] -4 126D
 1272 02E                                       b=0     w
 1273 3C5 01A                                   ?nc goto [J0714] 06F1
 1275 379 028                                   ?nc call [J0184] 0ADE
 1277 144                                       s=0 6
 1278 104     [J0747]                           s=0 8
 1279 03E                                       b=0     s
 127A 35E                                       ? a<>0  s
 127B 397                                       ?c  goto [J0738] -14 126D
 127C 2DA                                       ? b<>0  m
 127D 383                                       ?nc goto [J0738] -16 126D
 127E 0A6                                       ac ex   x
 127F 106                                       a=c     x
 1280 2E6                                       ? c<>0  x
 1281 07B                                       ?nc goto [J0748] +15 1290
 1282 146                                       a=a+c   x
 1283 01B                                       ?nc goto [J0749] +3 1286
 1284 2A6                                       c=-c-1  x
 1285 108                                       s=1 8
 1286 00E     [J0749]                           a=0     w
 1287 05E                                       c=0     s
 1288 05A                                       c=0     m
 1289 35C                                       pt= 12
 128A 18A                                       a=a-b   wp
 128B 262                                       c=c-1   p
 128C 222     [J0764]                           c=c+1   p
 128D 08E     [J0762]                           b=a     w
 128E 158                                       m=c
 128F 1B3                                       ?nc goto [J0750] +54 12C5
 1290 35C     [J0748]                           pt= 12
 1291 0CE                                       c=b     w
 1292 262                                       c=c-1   p
 1293 0AE                                       ac ex   w
 1294 34E                                       ? a<>0  w
 1295 025 04E                                   ?nc goto [J0751] 1309
 1297 342     [J0753]                           ? a<>0  p
 1298 027                                       ?c  goto [J0752] +4 129C
 1299 266                                       c=c-1   x
 129A 3EE                                       a sl    w
 129B 3E3                                       ?nc goto [J0753] -4 1297
 129C 1D8     [J0752]                           c<>m
 129D 225 01C                                   ?nc call [J0398] 0789
 129F 0B3                                       ?nc goto [J0754] +22 12B5
 12A0 211 018 [J0756]                           ?nc call [J0664] 0684
 12A2 2B3                                       ?nc goto [J0747] -42 1278
 12A3 144     [J0805]                           s=0 6
 12A4 104     [J0851]                           s=0 8
 12A5 03E                                       b=0     s
 12A6 0AE                                       ac ex   w
 12A7 02B                                       ?nc goto [J0755] +5 12AC
 12A8 144                                       s=0 6
 12A9 104     [J0658]                           s=0 8
 12AA 02E                                       b=0     w
 12AB 0FA                                       bc ex   m
 12AC 10E     [J0755]                           a=c     w
 12AD 226                                       c=c+1   x
 12AE 1E6                                       c=c+c   x
 12AF 38B                                       ?nc goto [J0756] -15 12A0
 12B0 35E                                       ? a<>0  s
 12B1 057                                       ?c  goto [J0757] +10 12BB
 12B2 0AE                                       ac ex   w
 12B3 0F5 01C                                   ?nc call [J0758] 073D
 12B5 35C     [J0754]                           pt= 12
 12B6 04E                                       c=0     w
 12B7 0A6                                       ac ex   x
 12B8 10E                                       a=c     w
 12B9 06E                                       ab ex   w
 12BA 03B                                       ?nc goto [J0759] +7 12C1
 12BB 108     [J0757]                           s=1 8
 12BC 3CB                                       ?nc goto [J0754] -7 12B5
 12BD 154     [J0761]                           ? pt= 6
 12BE 1FF                                       ?c  goto [J0760] +63 12FD
 12BF 3D4                                       dec pt
 12C0 23E                                       c=c+1   s
 12C1 226     [J0759]                           c=c+1   x
 12C2 3DB                                       ?nc goto [J0761] -5 12BD
 12C3 253     [J0765]                           ?nc goto [J0762] -54 128D
 12C4 38E     [J0763]                           a sr    w
 12C5 27E     [J0750]                           c=c-1   s
 12C6 3F3                                       ?nc goto [J0763] -2 12C4
 12C7 198                                       c=m
 12C8 12E                                       a=a+b   w
 12C9 1BE                                       a=a-1   s
 12CA 231 04A                                   ?nc goto [J0764] 128C
 12CC 23E                                       c=c+1   s
 12CD 06E                                       ab ex   w
 12CE 3EE                                       a sl    w
 12CF 3D4                                       dec pt
 12D0 094                                       ? pt= 5
 12D1 393                                       ?nc goto [J0765] -14 12C3
 12D2 0AE                                       ac ex   w
 12D3 08E                                       b=a     w
 12D4 3EA                                       a sl    wp
 12D5 3EA                                       a sl    wp
 12D6 3EA                                       a sl    wp
 12D7 0AE                                       ac ex   w
 12D8 39C                                       pt= 0
 12D9 1D0                                       lc 7
 12DA 286                                       c=-c    x
 12DB 2C6                                       ? b<>0  x
 12DC 1E3                                       ?nc goto [J0766] +60 1318
 12DD 15C                                       pt= 6
 12DE 38E     [J0769]                           a sr    w
 12DF 0EE                                       bc ex   w
 12E0 30D 044 [J0779]                           ?nc call [J0698] 11C3
 12E2 07D 04C                                   ?nc call [J0767] 131F
 12E4 2FA                                       ? c<>0  m
 12E5 0E3                                       ?nc goto [J0768] +28 1301
 12E6 2D4                                       ? pt= 13
 12E7 3BB                                       ?nc goto [J0769] -9 12DE
 12E8 02E                                       b=0     w
 12E9 39C                                       pt= 0
 12EA 082                                       b=a     p
 12EB 12E                                       a=a+b   w
 12EC 38E                                       a sr    w
 12ED 2CD 044                                   ?nc call [J0770] 11B3
 12EF 10C                                       ? s=0 8
 12F0 037                                       ?c  goto [J0771] +6 12F6
 12F1 06E                                       ab ex   w
 12F2 18E                                       a=a-b   w
 12F3 06E                                       ab ex   w
 12F4 12E                                       a=a+b   w
 12F5 06E                                       ab ex   w
 12F6 01C     [J0771]                           pt= 3
 12F7 07D 04C [J0772]                           ?nc call [J0767] 131F
 12F9 2FA                                       ? c<>0  m
 12FA 03B                                       ?nc goto [J0768] +7 1301
 12FB 38E                                       a sr    w
 12FC 3DB                                       ?nc goto [J0772] -5 12F7
 12FD 0EE     [J0760]                           bc ex   w
 12FE 0DB                                       ?nc goto [J0773] +27 1319
 12FF 38E     [J0775]                           a sr    w
 1300 023                                       ?nc goto [J0774] +4 1304
 1301 35E     [J0768]                           ? a<>0  s
 1302 3EF                                       ?c  goto [J0775] -3 12FF
 1303 266                                       c=c-1   x
 1304 05E     [J0774]                           c=0     s
 1305 10C                                       ? s=0 8
 1306 01B                                       ?nc goto [J0751] +3 1309
 1307 2BE                                       c=-c-1  s
 1308 000                                       nop
 1309 369 018 [J0751]                           ?nc call [J0577] 06DA
 130B 14C                                       ? s=0 6
 130C 0CB                                       ?nc goto [J0776] +25 1325
 130D 049 048                                   ?nc call [J0372] 1212
 130F 095 01C                                   ?nc call [J0195] 0725
 1311 198                                       c=m
 1312 2FE     [J0778]                           ? c<>0  s
 1313 095 046                                   ?nc goto [J0777] 1125
 1315 1A6                                       a=a-1   x
 1316 0EE                                       bc ex   w
 1317 3DB                                       ?nc goto [J0778] -5 1312
 1318 38E     [J0766]                           a sr    w
 1319 2A9 01C [J0773]                           ?nc call [J0716] 07AA
 131B 06E                                       ab ex   w
 131C 15C                                       pt= 6
 131D 21B                                       ?nc goto [J0779] -61 12E0
 131E 12E     [J0780]                           a=a+b   w
 131F 262     [J0767]                           c=c-1   p
 1320 3F3                                       ?nc goto [J0780] -2 131E
 1321 042                                       c=0     p
 1322 226                                       c=c+1   x
 1323 3DC                                       inc pt
 1324 3E0                                       rtn

 1325 08C     [J0776]                           ? s=0 5
 1326 3A0                                       ?nc rtn
 1327 04E                                       c=0     w
 1328 1D8                                       c<>m
 1329 2D1 044                                   ?nc call [J0700] 11B4
 132B 0EE                                       bc ex   w
 132C 1F1 01E                                   ?nc goto [J0191] 077C
 132E 04E     [J0783]                           c=0     w
 132F 066                                       ab ex   x
 1330 2A0     [J0781]                           set dec
 1331 226                                       c=c+1   x
 1332 260                                       set hex
 1333 1A6                                       a=a-1   x
 1334 3E3                                       ?nc goto [J0781] -4 1330
 1335 03C                                       ? rcr 3
 1336 001 03E                                   ?nc goto [J0641] 0F00
 1338 1A0     [J0790]                           clear abc
 1339 31C                                       pt= 1
 133A 110                                       lc 4
 133B 19C                                       pt= 11
 133C 050                                       lc 1
 133D 320                                       disp toggle
 133E 013                                       ?nc goto [J0782] +2 1340
 133F 278     [J0785]                           rdreg 9
 1340 1EE     [J0782]                           c=c+c   w
 1341 268                                       wrreg 9
 1342 2A8                                       wrreg 10
 1343 086                                       b=a     x
 1344 3BD 02C                                   ?nc call [J0024] 0BEF
 1346 04E                                       c=0     w
 1347 05C                                       pt= 4
 1348 090                                       lc 2
 1349 26E     [J0784]                           c=c-1   w
 134A 327                                       ?c  goto [J0783] -28 132E
 134B 3CC                                       ? kb
 134C 3EB                                       ?nc goto [J0784] -3 1349
 134D 130 382                                   ldi 382
 134F 206                                       c=a+c   x
 1350 05A                                       c=0     m
 1351 1BC                                       ? rcr 11
 1352 330                                       cxisa
 1353 106                                       a=c     x
 1354 220                                       c=keys
 1355 03C                                       ? rcr 3
 1356 056                                       c=0     xs
 1357 366                                       ? a<>c  x
 1358 2B7                                       ?c  goto [J0783] -42 132E
 1359 06E                                       ab ex   w
 135A 166                                       a=a+1   x
 135B 130 028                                   ldi 028
 135D 306                                       ? a<c   x
 135E 30F                                       ?c  goto [J0785] -31 133F
 135F 04E                                       c=0     w
 1360 26E                                       c=c-1   w
 1361 11C                                       pt= 8
 1362 050                                       lc 1
 1363 090                                       lc 2
 1364 231 058                                   ?nc call [J0786] 168C
 1366 153                                       ?nc goto [J0787] +42 1390
 1367 384     [J0010]                           s=0 0
 1368 359 040                                   ?nc call [J0008] 10D6
 136A 11A                                       a=c     m
 136B 335 02C                                   ?nc call [J0788] 0BCD
 136D 046                                       c=0     x
 136E 270                                       sel ram
 136F 37A                                       ? a<>c  m
 1370 17F                                       ?c  goto [J0789] +47 139F
 1371 3BD 02C                                   ?nc call [J0024] 0BEF
 1373 3E5 02C                                   ?nc call [J0009] 0BF9
 1375 130 012                                   ldi 012
 1377 366                                       ? a<>c  x
 1378 203                                       ?nc goto [J0790] -64 1338
 1379 084                                       s=0 5
 137A 130 017                                   ldi 017
 137C 366                                       ? a<>c  x
 137D 06B                                       ?nc goto [J0791] +13 138A
 137E 130 075                                   ldi 075
 1380 366                                       ? a<>c  x
 1381 0A3                                       ?nc goto [J0792] +20 1395
 1382 130 014                                   ldi 014
 1384 366                                       ? a<>c  x
 1385 0D3                                       ?nc goto [J0789] +26 139F
 1386 226                                       c=c+1   x
 1387 366                                       ? a<>c  x
 1388 0AF                                       ?c  goto [J0793] +21 139D
 1389 088                                       s=1 5
 138A 3BD 02C [J0791]                           ?nc call [J0024] 0BEF
 138C 2CD 038 [J0795]                           ?nc call [J0794] 0EB3
 138E 08C                                       ? s=0 5
 138F 3EF                                       ?c  goto [J0795] -3 138C
 1390 01C     [J0787]                           pt= 3
 1391 2E0                                       disp off
 1392 320                                       disp toggle
 1393 159 002                                   ?nc goto [J0012] 0056
 1395 39C     [J0792]                           pt= 0
 1396 0D8                                       c<>g
 1397 106                                       a=c     x
 1398 130 080                                   ldi 080
 139A 206                                       c=a+c   x
 139B 0D8                                       c<>g
 139C 0B0                                       c=n
 139D 121 05A [J0793]                           ?nc goto [J0041] 1648
 139F 008     [J0789]                           s=1 3
 13A0 39C                                       pt= 0
 13A1 130 042                                   ldi 042
 13A3 058                                       g=c
 13A4 361 03C                                   ?nc call [J0796] 0FD8
 13A6 130 0F0                                   ldi 0F0
 13A8 329 02C                                   ?nc call [J0797] 0BCA
 13AA 3A8                                       wrreg 14
 13AB 1A0                                       clear abc
 13AC 070                                       n=c
 13AD 26E                                       c=c-1   w
 13AE 11C                                       pt= 8
 13AF 350                                       lc 13
 13B0 290                                       lc 10
 13B1 3D0                                       lc 15
 13B2 06B                                       ?nc goto [J0798] +13 13BF
 13B3 054     [J0087]                           ? pt= 4
 13B4 017                                       ?c  goto [J0799] +2 13B6
 13B5 384                                       s=0 0
 13B6 04E     [J0799]                           c=0     w
 13B7 204                                       s=0 2
 13B8 260                                       set hex
 13B9 26E                                       c=c-1   w
 13BA 3D4     [J0800]                           dec pt
 13BB 236                                       c=c+1   xs
 13BC 2D4                                       ? pt= 13
 13BD 3EB                                       ?nc goto [J0800] -3 13BA
 13BE 11C                                       pt= 8
 13BF 390     [J0798]                           lc 14
 13C0 290                                       lc 10
 13C1 290                                       lc 10
 13C2 310                                       lc 12
 13C3 290                                       lc 10
 13C4 1BC                                       ? rcr 11
 13C5 2DC                                       pt= 13
 13C6 3D0                                       lc 15
 13C7 10E                                       a=c     w
 13C8 0A0                                       sel p
 13C9 01C                                       pt= 3
 13CA 145 002                                   ?nc goto [J0039] 0051
 13CC 1B5 018 [J0678]                           ?nc call [J0497] 066D
 13CE 04B                                       ?nc goto [J0047] +9 13D7
 13CF 2BE     [J0675]                           c=-c-1  s
 13D0 245 019                                   ?c  call [J0029] 0691
 13D2 02B                                       ?nc goto [J0047] +5 13D7
 13D3 0AE     [J0463]                           ac ex   w
 13D4 2BE                                       c=-c-1  s
 13D5 379 029                                   ?c  call [J0184] 0ADE
 13D7 04E     [J0047]                           c=0     w
 13D8 270                                       sel ram
 13D9 178                                       rdreg 5
 13DA 1A8                                       wrreg 6
 13DB 138                                       rdreg 4
 13DC 168                                       wrreg 5
 13DD 0CE                                       c=b     w
 13DE 0BE                                       ac ex   s
 13DF 11E                                       a=c     s
 13E0 128                                       wrreg 4
 13E1 1F8                                       rdreg 7
 13E2 0BA                                       ac ex   m
 13E3 19C                                       pt= 11
 13E4 3EA                                       a sl    wp
 13E5 3EA                                       a sl    wp
 13E6 3EA                                       a sl    wp
 13E7 0BA                                       ac ex   m
 13E8 1E8                                       wrreg 7
 13E9 0AA                                       ac ex   wp
 13EA 38A     [J0801]                           a sr    wp
 13EB 38A                                       a sr    wp
 13EC 38A                                       a sr    wp
 13ED 3E0                                       rtn

 13EE 351 03C [J0676]                           ?nc call [J0216] 0FD4
 13F0 04E     [J0712]                           c=0     w
 13F1 270                                       sel ram
 13F2 138                                       rdreg 4
 13F3 0BE                                       ac ex   s
 13F4 35C                                       pt= 12
 13F5 0EA                                       bc ex   wp
 13F6 128                                       wrreg 4
 13F7 1F8                                       rdreg 7
 13F8 09C                                       pt= 5
 13F9 3EA                                       a sl    wp
 13FA 3EA                                       a sl    wp
 13FB 3EA                                       a sl    wp
 13FC 0AA                                       ac ex   wp
 13FD 0A6                                       ac ex   x
 13FE 1E8                                       wrreg 7
 13FF 35B                                       ?nc goto [J0801] -21 13EA
 1400 39D 05C [J0205]                           ?nc call [J0208] 17E7
 1402 359 054                                   ?nc call [J0185] 15D6
 1404 015 01C                                   ?nc call [J0802] 0705
 1406 3C1 04C                                   ?nc call [J0712] 13F0
 1408 025 01C                                   ?nc call [J0187] 0709
 140A 1FD 040                                   ?nc call [J0199] 107F
 140C 3C9 054                                   ?nc call [J0481] 15F2
 140E 311 054                                   ?nc call [J0388] 15C4
 1410 089 050                                   ?nc call [J0480] 1422
 1412 01D 044                                   ?nc call [J0201] 1107
 1414 368                                       wrreg 13
 1415 3E0                                       rtn

 1416 1FD 040 [J0197]                           ?nc call [J0199] 107F
 1418 35E                                       ? a<>0  s
 1419 01B                                       ?nc goto [J0803] +3 141C
 141A 2F6                                       ? c<>0  xs
 141B 17B                                       ?nc goto [J0804] +47 144A
 141C 28D 048 [J0803]                           ?nc call [J0805] 12A3
 141E 2A1 000                                   ?nc call [J0453] 00A8
 1420 28D 048                                   ?nc call [J0805] 12A3
 1422 28D 000 [J0480]                           ?nc call [J0193] 00A3
 1424 1F1 01E                                   ?nc goto [J0191] 077C
 1426 084     [J0808]                           s=0 5
 1427 39C                                       pt= 0
 1428 098                                       c=g
 1429 3D8                                       c<>s
 142A 04C                                       ? s=0 4
 142B 01F                                       ?c  goto [J0806] +3 142E
 142C 3D8                                       c<>s
 142D 3E0                                       rtn

 142E 3D8     [J0806]                           c<>s
 142F 088                                       s=1 5
 1430 3E0                                       rtn

 1431 125 054 [J0206]                           ?nc call [J0807] 1549
 1433 35D 04C                                   ?nc call [J0047] 13D7
 1435 2DA                                       ? b<>0  m
 1436 099 051                                   ?c  call [J0808] 1426
 1438 33D 008                                   ?nc call [J0514] 02CF
 143A 2F6                                       ? c<>0  xs
 143B 09B                                       ?nc goto [J0809] +19 144E
 143C 2BE                                       c=-c-1  s
 143D 209 019                                   ?c  call [J0373] 0682
 143F 00D 01C                                   ?nc call [J0686] 0703
 1441 08C                                       ? s=0 5
 1442 013                                       ?nc goto [J0810] +2 1444
 1443 1A0                                       clear abc
 1444 2F8     [J0810]                           rdreg 11
 1445 245 018                                   ?nc call [J0029] 0691
 1447 351 03C                                   ?nc call [J0216] 0FD4
 1449 2FE                                       ? c<>0  s
 144A 241 052 [J0804]                           ?nc goto [J0811] 1490
 144C 2C8     [J0532]                           s=1 13
 144D 388                                       s=1 0
 144E 10E     [J0809]                           a=c     w
 144F 04E                                       c=0     w
 1450 39C                                       pt= 0
 1451 0D0                                       lc 3
 1452 306                                       ? a<c   x
 1453 04B                                       ?nc goto [J0812] +9 145C
 1454 344                                       s=0 12
 1455 1F1 054                                   ?nc call [J0813] 157C
 1457 356                                       ? a<>0  xs
 1458 023                                       ?nc goto [J0812] +4 145C
 1459 31C                                       pt= 1
 145A 162                                       a=a+1   p
 145B 01F                                       ?c  goto [J0814] +3 145E
 145C 04E     [J0812]                           c=0     w
 145D 3A8                                       wrreg 14
 145E 359 040 [J0814]                           ?nc call [J0008] 10D6
 1460 17C                                       ? rcr 6
 1461 046                                       c=0     x
 1462 13C                                       ? rcr 8
 1463 3A8                                       wrreg 14
 1464 3BD 02C                                   ?nc call [J0024] 0BEF
 1466 1CD 040 [J0839]                           ?nc call [J0217] 1073
 1468 048                                       s=1 4
 1469 385 054                                   ?nc call [J0815] 15E1
 146B 35D 04C                                   ?nc call [J0047] 13D7
 146D 1A0                                       clear abc
 146E 285 054                                   ?nc call [J0816] 15A1
 1470 2E9 054                                   ?nc call [J0817] 15BA
 1472 1A9 054                                   ?nc call [J0818] 156A
 1474 251 054                                   ?nc call [J0819] 1594
 1476 275 040                                   ?nc call [J0178] 109D
 1478 2E6                                       ? c<>0  x
 1479 027                                       ?c  goto [J0820] +4 147D
 147A 262                                       c=c-1   p
 147B 262                                       c=c-1   p
 147C 03F                                       ?c  goto [J0821] +7 1483
 147D 2A9 000 [J0820]                           ?nc call [J0188] 00AA
 147F 1F1 054                                   ?nc call [J0813] 157C
 1481 2DA                                       ? b<>0  m
 1482 087                                       ?c  goto [J0822] +16 1492
 1483 1CD 040 [J0821]                           ?nc call [J0217] 1073
 1485 07B                                       ?nc goto [J0823] +15 1494
 1486 130 0E0 [J0186]                           ldi 0E0
 1488 270                                       sel ram
 1489 3B8                                       rdreg 14
 148A 266                                       c=c-1   x
 148B 266                                       c=c-1   x
 148C 2FE                                       ? c<>0  s
 148D 3A0                                       ?nc rtn
 148E 2F6                                       ? c<>0  xs
 148F 360                                       ?c rtn
 1490 37D 00A [J0811]                           ?nc goto [J0180] 02DF
 1492 15D 01C [J0822]                           ?nc call [J0213] 0757
 1494 35D 04C [J0823]                           ?nc call [J0047] 13D7
 1496 219 018                                   ?nc call [J0371] 0686
 1498 015 01C                                   ?nc call [J0802] 0705
 149A 251 054                                   ?nc call [J0819] 1594
 149C 159 054                                   ?nc call [J0824] 1556
 149E 3E1 018                                   ?nc call [J0220] 06F8
 14A0 251 054                                   ?nc call [J0819] 1594
 14A2 125 054                                   ?nc call [J0807] 1549
 14A4 2DA                                       ? b<>0  m
 14A5 09B                                       ?nc goto [J0825] +19 14B8
 14A6 34D 054                                   ?nc call [J0826] 15D3
 14A8 08C                                       ? s=0 5
 14A9 03B                                       ?nc goto [J0827] +7 14B0
 14AA 275 040                                   ?nc call [J0178] 109D
 14AC 1BD 040                                   ?nc call [J0181] 106F
 14AE 381 054                                   ?nc call [J0828] 15E0
 14B0 35D 04C [J0827]                           ?nc call [J0047] 13D7
 14B2 125 054                                   ?nc call [J0807] 1549
 14B4 351 03C                                   ?nc call [J0216] 0FD4
 14B6 3E1 018                                   ?nc call [J0220] 06F8
 14B8 35D 04C [J0825]                           ?nc call [J0047] 13D7
 14BA 251 054                                   ?nc call [J0819] 1594
 14BC 22D 054                                   ?nc call [J0829] 158B
 14BE 2DA                                       ? b<>0  m
 14BF 28B     [J0831]                           ?nc goto [J0811] -47 1490
 14C0 1D1 054                                   ?nc call [J0830] 1574
 14C2 2DA                                       ? b<>0  m
 14C3 3E3                                       ?nc goto [J0831] -4 14BF
 14C4 34C                                       ? s=0 12
 14C5 39D 03C                                   ?nc call [J0438] 0FE7
 14C7 244                                       s=0 9
 14C8 348                                       s=1 12
 14C9 275 040                                   ?nc call [J0178] 109D
 14CB 08C                                       ? s=0 5
 14CC 201 018                                   ?nc call [J0663] 0680
 14CE 070                                       n=c
 14CF 1A0                                       clear abc
 14D0 3C1 04C                                   ?nc call [J0712] 13F0
 14D2 03D 01C                                   ?nc call [J0665] 070F
 14D4 3A9 054                                   ?nc call [J0832] 15EA
 14D6 1CD 040                                   ?nc call [J0217] 1073
 14D8 070                                       n=c
 14D9 159 054                                   ?nc call [J0824] 1556
 14DB 03D 01C                                   ?nc call [J0665] 070F
 14DD 2C5 000                                   ?nc call [J0190] 00B1
 14DF 095 01C                                   ?nc call [J0195] 0725
 14E1 3A9 054                                   ?nc call [J0832] 15EA
 14E3 0B0                                       c=n
 14E4 1A9 018                                   ?nc call [J0429] 066A
 14E6 3E1 018                                   ?nc call [J0220] 06F8
 14E8 2BD 000                                   ?nc call [J0210] 00AF
 14EA 0B0                                       c=n
 14EB 1FD 040                                   ?nc call [J0199] 107F
 14ED 245 018                                   ?nc call [J0029] 0691
 14EF 1F1 054                                   ?nc call [J0813] 157C
 14F1 2DA                                       ? b<>0  m
 14F2 047                                       ?c  goto [J0833] +8 14FA
 14F3 049 048                                   ?nc call [J0372] 1212
 14F5 0EE                                       bc ex   w
 14F6 198                                       c=m
 14F7 051 01C                                   ?nc call [J0834] 0714
 14F9 02B                                       ?nc goto [J0835] +5 14FE
 14FA 15D 01C [J0833]                           ?nc call [J0213] 0757
 14FC 1E9 018                                   ?nc call [J0211] 067A
 14FE 015 01C [J0835]                           ?nc call [J0802] 0705
 1500 3A9 054                                   ?nc call [J0832] 15EA
 1502 14D 01C                                   ?nc call [J0451] 0753
 1504 35D 04C                                   ?nc call [J0047] 13D7
 1506 22D 054                                   ?nc call [J0829] 158B
 1508 1D1 054                                   ?nc call [J0830] 1574
 150A 1F1 01C                                   ?nc call [J0191] 077C
 150C 048                                       s=1 4
 150D 19D 048                                   ?nc call [J0746] 1267
 150F 34D 054                                   ?nc call [J0826] 15D3
 1511 351 03C                                   ?nc call [J0216] 0FD4
 1513 1F1 054                                   ?nc call [J0813] 157C
 1515 24D 018                                   ?nc call [J0189] 0693
 1517 070                                       n=c
 1518 2BE                                       c=-c-1  s
 1519 262                                       c=c-1   p
 151A 2EE                                       ? c<>0  w
 151B 133                                       ?nc goto [J0836] +38 1541
 151C 359 040                                   ?nc call [J0008] 10D6
 151E 17C                                       ? rcr 6
 151F 0C6                                       c=b     x
 1520 13C                                       ? rcr 8
 1521 3A8                                       wrreg 14
 1522 219 050                                   ?nc call [J0186] 1486
 1524 0AE                                       ac ex   w
 1525 0DA                                       c=b     m
 1526 226                                       c=c+1   x
 1527 226                                       c=c+1   x
 1528 3A8                                       wrreg 14
 1529 0B0                                       c=n
 152A 3CC                                       ? kb
 152B 0B7                                       ?c  goto [J0836] +22 1541
 152C 2BE                                       c=-c-1  s
 152D 23D 019                                   ?c  call [J0202] 068F
 152F 2FA                                       ? c<>0  m
 1530 08B                                       ?nc goto [J0836] +17 1541
 1531 0B0                                       c=n
 1532 2FE                                       ? c<>0  s
 1533 01F                                       ?c  goto [J0837] +3 1536
 1534 2F6                                       ? c<>0  xs
 1535 013                                       ?nc goto [J0838] +2 1537
 1536 046     [J0837]                           c=0     x
 1537 388     [J0838]                           s=1 0
 1538 246                                       c=a-c   x
 1539 266                                       c=c-1   x
 153A 266                                       c=c-1   x
 153B 1F6                                       c=c+c   xs
 153C 199 052 [J0840]                           ?nc goto [J0839] 1466
 153E 31C                                       pt= 1
 153F 222                                       c=c+1   p
 1540 3E7                                       ?c  goto [J0840] -4 153C
 1541 0B0     [J0836]                           c=n
 1542 226                                       c=c+1   x
 1543 226                                       c=c+1   x
 1544 3A8                                       wrreg 14
 1545 384                                       s=0 0
 1546 070     [J0483]                           n=c
 1547 0A9 002                                   ?nc goto [J0004] 002A
 1549 275 040 [J0807]                           ?nc call [J0178] 109D
 154B 08C                                       ? s=0 5
 154C 023                                       ?nc goto [J0841] +4 1550
 154D 378                                       rdreg 13
 154E 379 02A                                   ?nc goto [J0184] 0ADE
 1550 1BD 040 [J0841]                           ?nc call [J0181] 106F
 1552 10E     [J0488]                           a=c     w
 1553 378                                       rdreg 13
 1554 085 01E                                   ?nc goto [J0321] 0721
 1556 275 040 [J0824]                           ?nc call [J0178] 109D
 1558 08C                                       ? s=0 5
 1559 01B                                       ?nc goto [J0842] +3 155C
 155A 1A0                                       clear abc
 155B 043                                       ?nc goto [J0843] +8 1563
 155C 1BD 040 [J0842]                           ?nc call [J0181] 106F
 155E 1A9 018                                   ?nc call [J0429] 066A
 1560 2BE                                       c=-c-1  s
 1561 149 055                                   ?c  call [J0488] 1552
 1563 30C     [J0843]                           ? s=0 1
 1564 01B                                       ?nc goto [J0844] +3 1567
 1565 00C                                       ? s=0 3
 1566 360                                       ?c rtn
 1567 338     [J0844]                           rdreg 12
 1568 245 01A                                   ?nc goto [J0029] 0691
 156A 349 040 [J0818]                           ?nc call [J0182] 10D2
 156C 2F8                                       rdreg 11
 156D 379 028                                   ?nc call [J0184] 0ADE
 156F 00C                                       ? s=0 3
 1570 3A0                                       ?nc rtn
 1571 30C                                       ? s=0 1
 1572 3A0                                       ?nc rtn
 1573 3A3                                       ?nc goto [J0844] -12 1567
 1574 0AE     [J0830]                           ac ex   w
 1575 158                                       m=c
 1576 339 040                                   ?nc call [J0360] 10CE
 1578 1F8                                       rdreg 7
 1579 10E                                       a=c     w
 157A 0F8                                       rdreg 3
 157B 073                                       ?nc goto [J0845] +14 1589
 157C 0AE     [J0813]                           ac ex   w
 157D 158                                       m=c
 157E 359 040                                   ?nc call [J0008] 10D6
 1580 17C                                       ? rcr 6
 1581 106                                       a=c     x
 1582 349 040                                   ?nc call [J0182] 10D2
 1584 3B8                                       rdreg 14
 1585 0AE                                       ac ex   w
 1586 0BA                                       ac ex   m
 1587 1A6                                       a=a-1   x
 1588 1A6                                       a=a-1   x
 1589 0EE     [J0845]                           bc ex   w
 158A 3E0                                       rtn

 158B 0AE     [J0829]                           ac ex   w
 158C 158                                       m=c
 158D 359 040                                   ?nc call [J0008] 10D6
 158F 27C                                       ? rcr 9
 1590 106                                       a=c     x
 1591 3F8                                       rdreg 15
 1592 11E                                       a=c     s
 1593 3B3                                       ?nc goto [J0845] -10 1589
 1594 2DA     [J0819]                           ? b<>0  m
 1595 3A0                                       ?nc rtn
 1596 35E                                       ? a<>0  s
 1597 0BF                                       ?c  goto [J0846] +23 15AE
 1598 0CC                                       ? s=0 10
 1599 389 009                                   ?c  call [J0847] 02E2
 159B 188                                       s=1 11
 159C 0C4                                       s=0 10
 159D 22D 054                                   ?nc call [J0829] 158B
 159F 24D 018                                   ?nc call [J0189] 0693
 15A1 359 040 [J0816]                           ?nc call [J0008] 10D6
 15A3 0CE                                       c=b     w
 15A4 0BE                                       ac ex   s
 15A5 11E                                       a=c     s
 15A6 3E8                                       wrreg 15
 15A7 3B8                                       rdreg 14
 15A8 27C                                       ? rcr 9
 15A9 0A6                                       ac ex   x
 15AA 106                                       a=c     x
 15AB 0BC                                       ? rcr 5
 15AC 3A8                                       wrreg 14
 15AD 3E0                                       rtn

 15AE 18C     [J0846]                           ? s=0 11
 15AF 023                                       ?nc goto [J0848] +4 15B3
 15B0 0CC                                       ? s=0 10
 15B1 389 008                                   ?nc call [J0847] 02E2
 15B3 1FD 040 [J0848]                           ?nc call [J0199] 107F
 15B5 1D1 054                                   ?nc call [J0830] 1574
 15B7 24D 018                                   ?nc call [J0189] 0693
 15B9 0C8                                       s=1 10
 15BA 339 040 [J0817]                           ?nc call [J0360] 10CE
 15BC 0CE                                       c=b     w
 15BD 0E8                                       wrreg 3
 15BE 1F8                                       rdreg 7
 15BF 0BA                                       ac ex   m
 15C0 0AE                                       ac ex   w
 15C1 1E8                                       wrreg 7
 15C2 10E                                       a=c     w
 15C3 3E0                                       rtn

 15C4 30C     [J0388]                           ? s=0 1
 15C5 099 051                                   ?c  call [J0808] 1426
 15C7 275 040                                   ?nc call [J0178] 109D
 15C9 1BD 040                                   ?nc call [J0181] 106F
 15CB 08C                                       ? s=0 5
 15CC 0A7                                       ?c  goto [J0828] +20 15E0
 15CD 219 050                                   ?nc call [J0186] 1486
 15CF 08D 01C                                   ?nc call [J0389] 0723
 15D1 211 01A [J0849]                           ?nc goto [J0664] 0684
 15D3 1F1 054 [J0826]                           ?nc call [J0813] 157C
 15D5 3E3                                       ?nc goto [J0849] -4 15D1
 15D6 30C     [J0185]                           ? s=0 1
 15D7 01B                                       ?nc goto [J0850] +3 15DA
 15D8 00C                                       ? s=0 3
 15D9 360                                       ?c rtn
 15DA 35D 04C [J0850]                           ?nc call [J0047] 13D7
 15DC 1F5 018                                   ?nc call [J0448] 067D
 15DE 351 03E                                   ?nc goto [J0216] 0FD4
 15E0 044     [J0828]                           s=0 4
 15E1 379 028 [J0815]                           ?nc call [J0184] 0ADE
 15E3 35D 04C                                   ?nc call [J0047] 13D7
 15E5 1F1 054                                   ?nc call [J0813] 157C
 15E7 148                                       s=1 6
 15E8 291 04A                                   ?nc goto [J0851] 12A4
 15EA 2FE     [J0832]                           ? c<>0  s
 15EB 22D 054                                   ?nc call [J0829] 158B
 15ED 2FE                                       ? c<>0  s
 15EE 1D1 055                                   ?c  call [J0830] 1574
 15F0 15D 01C                                   ?nc call [J0213] 0757
 15F2 049 048 [J0481]                           ?nc call [J0372] 1212
 15F4 24D 018                                   ?nc call [J0189] 0693
 15F6 35D 04E                                   ?nc goto [J0047] 13D7
 15F8 088                                       s=1 5
 15F9 339 040                                   ?nc call [J0360] 10CE
 15FB 0B0                                       c=n
 15FC 128     [J0858]                           wrreg 4
 15FD 271 040                                   ?nc call [J0016] 109C
 15FF 0F8                                       rdreg 3
 1600 04C                                       ? s=0 4
 1601 017                                       ?c  goto [J0852] +2 1603
 1602 078                                       rdreg 1
 1603 1F5 040 [J0852]                           ?nc call [J0853] 107D
 1605 219 040                                   ?nc call [J0854] 1086
 1607 339 040                                   ?nc call [J0360] 10CE
 1609 138                                       rdreg 4
 160A 10E                                       a=c     w
 160B 085 01C                                   ?nc call [J0321] 0721
 160D 349 040                                   ?nc call [J0182] 10D2
 160F 138                                       rdreg 4
 1610 04C                                       ? s=0 4
 1611 017                                       ?c  goto [J0855] +2 1613
 1612 0B8                                       rdreg 2
 1613 1F5 040 [J0855]                           ?nc call [J0853] 107D
 1615 20D 040                                   ?nc call [J0856] 1083
 1617 339 040                                   ?nc call [J0360] 10CE
 1619 04C                                       ? s=0 4
 161A 01F                                       ?c  goto [J0857] +3 161D
 161B 048                                       s=1 4
 161C 303                                       ?nc goto [J0858] -32 15FC
 161D 10E     [J0857]                           a=c     w
 161E 0B0                                       c=n
 161F 085 01C                                   ?nc call [J0321] 0721
 1621 1F5 040                                   ?nc call [J0853] 107D
 1623 349 040                                   ?nc call [J0182] 10D2
 1625 178                                       rdreg 5
 1626 20D 040                                   ?nc call [J0856] 1083
 1628 00E                                       a=0     w
 1629 162                                       a=a+1   p
 162A 1F5 040                                   ?nc call [J0853] 107D
 162C 349 040                                   ?nc call [J0182] 10D2
 162E 219 040                                   ?nc call [J0854] 1086
 1630 0F0                                       c<>n
 1631 2A8                                       wrreg 10
 1632 0F0                                       c<>n
 1633 1A9 002                                   ?nc goto [J0671] 006A
 1635 004                                       s=0 3
 1636 101 002 [J0859]                           ?nc goto [J0207] 0040
 1638 008                                       s=1 3
 1639 3EB                                       ?nc goto [J0859] -3 1636
 163A 361 03C [J0078]                           ?nc call [J0796] 0FD8
 163C 359 040                                   ?nc call [J0008] 10D6
 163E 3C6                                       c sr    x
 163F 276                                       c=c-1   xs
 1640 3C6                                       c sr    x
 1641 01B                                       ?nc goto [J0860] +3 1644
 1642 229 000 [J0861]                           ?nc call [J0667] 008A
 1644 262     [J0860]                           c=c-1   p
 1645 3EB                                       ?nc goto [J0861] -3 1642
 1646 1A0                                       clear abc
 1647 0F0                                       c<>n
 1648 384     [J0041]                           s=0 0
 1649 359 040 [J0081]                           ?nc call [J0008] 10D6
 164B 38C                                       ? s=0 0
 164C 033                                       ?nc goto [J0142] +6 1652
 164D 3C6                                       c sr    x
 164E 276                                       c=c-1   xs
 164F 3C6                                       c sr    x
 1650 329 02C                                   ?nc call [J0797] 0BCA
 1652 31C     [J0142]                           pt= 1
 1653 04A                                       c=0     wp
 1654 3A8                                       wrreg 14
 1655 019 00A                                   ?nc goto [J0139] 0206
 1657 0F9 018                                   ?nc call [J0375] 063E
 1659 0A8                                       wrreg 2
 165A 0AE                                       ac ex   w
 165B 0F9 002                                   ?nc goto [J0171] 003E
 165D 1F1 038                                   ?nc call [J0603] 0E7C
 165F 27D 038                                   ?nc call [J0681] 0E9F
 1661 1C5 016 [J0862]                           ?nc goto [J0673] 0571
 1663 2B5 040                                   ?nc call [J0597] 10AD
 1665 0E9 01C                                   ?nc call [J0599] 073A
 1667 3D3                                       ?nc goto [J0862] -6 1661
 1668 2B5 040                                   ?nc call [J0597] 10AD
 166A 3B8                                       rdreg 14
 166B 085 01C                                   ?nc call [J0321] 0721
 166D 3A3                                       ?nc goto [J0862] -12 1661
 166E 00E                                       a=0     w
 166F 39C                                       pt= 0
 1670 130 0E5                                   ldi 0E5
 1672 229 000 [J0863]                           ?nc call [J0667] 008A
 1674 262                                       c=c-1   p
 1675 3EB                                       ?nc goto [J0863] -3 1672
 1676 04E                                       c=0     w
 1677 070                                       n=c
 1678 37D 03C                                   ?nc call [J0335] 0FDF
 167A 195 002                                   ?nc goto [J0057] 0065
 167C 275 040                                   ?nc call [J0178] 109D
 167E 121 038                                   ?nc call [J0447] 0E48
 1680 0F0                                       c<>n
 1681 3A1 03C                                   ?nc call [J0214] 0FE8
 1683 275 040                                   ?nc call [J0178] 109D
 1685 1A9 018                                   ?nc call [J0429] 066A
 1687 3B1 036                                   ?nc goto [J0318] 0DEC
 1689 35C     [J0594]                           pt= 12
 168A 048                                       s=1 4
 168B 01B                                       ?nc goto [J0864] +3 168E
 168C 10E     [J0786]                           a=c     w
 168D 044     [J0022]                           s=0 4
 168E 260     [J0864]                           set hex
 168F 184                                       s=0 11
 1690 339 05C                                   ?nc call [J0865] 17CE
 1692 04E                                       c=0     w
 1693 270                                       sel ram
 1694 0E0                                       sel q
 1695 0AE                                       ac ex   w
 1696 128                                       wrreg 4
 1697 1FE                                       c=c+c   s
 1698 01B                                       ?nc goto [J0866] +3 169B
 1699 1FE                                       c=c+c   s
 169A 04F                                       ?c  goto [J0867] +9 16A3
 169B 10C     [J0866]                           ? s=0 8
 169C 03B                                       ?nc goto [J0867] +7 16A3
 169D 09C                                       pt= 5
 169E 2E2                                       ? c<>0  p
 169F 01F                                       ?c  goto [J0868] +3 16A2
 16A0 3D0                                       lc 15
 16A1 013                                       ?nc goto [J0867] +2 16A3
 16A2 2D0     [J0868]                           lc 11
 16A3 1A8     [J0867]                           wrreg 6
 16A4 33C                                       ? rcr 1
 16A5 236                                       c=c+1   xs
 16A6 04F                                       ?c  goto [J0869] +9 16AF
 16A7 385 02C                                   ?nc call [J0870] 0BE1
 16A9 2D6                                       ? b<>0  xs
 16AA 01B                                       ?nc goto [J0871] +3 16AD
 16AB 35C                                       pt= 12
 16AC 090                                       lc 2
 16AD 23C     [J0871]                           ? rcr 2
 16AE 14E                                       a=a+c   w
 16AF 1B8     [J0869]                           rdreg 6
 16B0 23C                                       ? rcr 2
 16B1 236                                       c=c+1   xs
 16B2 057                                       ?c  goto [J0872] +10 16BC
 16B3 385 02C                                   ?nc call [J0870] 0BE1
 16B5 2D6                                       ? b<>0  xs
 16B6 01B                                       ?nc goto [J0873] +3 16B9
 16B7 19C                                       pt= 11
 16B8 210                                       lc 8
 16B9 07C     [J0873]                           ? rcr 4
 16BA 3F1 01C                                   ?nc call [J0874] 07FC
 16BC 1B8     [J0872]                           rdreg 6
 16BD 03C                                       ? rcr 3
 16BE 236                                       c=c+1   xs
 16BF 04F                                       ?c  goto [J0875] +9 16C8
 16C0 385 02C                                   ?nc call [J0870] 0BE1
 16C2 2D6                                       ? b<>0  xs
 16C3 01B                                       ?nc goto [J0876] +3 16C6
 16C4 01C                                       pt= 3
 16C5 210                                       lc 8
 16C6 13C     [J0876]                           ? rcr 8
 16C7 14E                                       a=a+c   w
 16C8 1B8     [J0875]                           rdreg 6
 16C9 07C                                       ? rcr 4
 16CA 236                                       c=c+1   xs
 16CB 04F                                       ?c  goto [J0877] +9 16D4
 16CC 385 02C                                   ?nc call [J0870] 0BE1
 16CE 2D6                                       ? b<>0  xs
 16CF 01B                                       ?nc goto [J0878] +3 16D2
 16D0 19C                                       pt= 11
 16D1 210                                       lc 8
 16D2 0FC     [J0878]                           ? rcr 10
 16D3 14E                                       a=a+c   w
 16D4 1B8     [J0877]                           rdreg 6
 16D5 0BC                                       ? rcr 5
 16D6 236                                       c=c+1   xs
 16D7 04F                                       ?c  goto [J0879] +9 16E0
 16D8 385 02C                                   ?nc call [J0870] 0BE1
 16DA 2D6                                       ? b<>0  xs
 16DB 013                                       ?nc goto [J0880] +2 16DD
 16DC 090                                       lc 2
 16DD 2FC     [J0880]                           ? rcr 13
 16DE 3F1 01C                                   ?nc call [J0874] 07FC
 16E0 0AE     [J0879]                           ac ex   w
 16E1 365 05C                                   ?nc call [J0881] 17D9
 16E3 00E                                       a=0     w
 16E4 1B8                                       rdreg 6
 16E5 17C                                       ? rcr 6
 16E6 236                                       c=c+1   xs
 16E7 057                                       ?c  goto [J0882] +10 16F1
 16E8 385 02C                                   ?nc call [J0870] 0BE1
 16EA 2D6                                       ? b<>0  xs
 16EB 01B                                       ?nc goto [J0883] +3 16EE
 16EC 15C                                       pt= 6
 16ED 090                                       lc 2
 16EE 0BC     [J0883]                           ? rcr 5
 16EF 3F1 01C                                   ?nc call [J0874] 07FC
 16F1 1B8     [J0882]                           rdreg 6
 16F2 2BC                                       ? rcr 7
 16F3 236                                       c=c+1   xs
 16F4 04F                                       ?c  goto [J0884] +9 16FD
 16F5 385 02C                                   ?nc call [J0870] 0BE1
 16F7 2D6                                       ? b<>0  xs
 16F8 01B                                       ?nc goto [J0885] +3 16FB
 16F9 25C                                       pt= 9
 16FA 090                                       lc 2
 16FB 2BC     [J0885]                           ? rcr 7
 16FC 14E                                       a=a+c   w
 16FD 1B8     [J0884]                           rdreg 6
 16FE 13C                                       ? rcr 8
 16FF 236                                       c=c+1   xs
 1700 057                                       ?c  goto [J0886] +10 170A
 1701 385 02C                                   ?nc call [J0870] 0BE1
 1703 2D6                                       ? b<>0  xs
 1704 01B                                       ?nc goto [J0887] +3 1707
 1705 09C                                       pt= 5
 1706 210                                       lc 8
 1707 03C     [J0887]                           ? rcr 3
 1708 3F1 01C                                   ?nc call [J0874] 07FC
 170A 1B8     [J0886]                           rdreg 6
 170B 27C                                       ? rcr 9
 170C 236                                       c=c+1   xs
 170D 04F                                       ?c  goto [J0888] +9 1716
 170E 385 02C                                   ?nc call [J0870] 0BE1
 1710 2D6                                       ? b<>0  xs
 1711 01B                                       ?nc goto [J0889] +3 1714
 1712 35C                                       pt= 12
 1713 210                                       lc 8
 1714 3ED 01C [J0889]                           ?nc call [J0890] 07FB
 1716 1B8     [J0888]                           rdreg 6
 1717 0FC                                       ? rcr 10
 1718 236                                       c=c+1   xs
 1719 04F                                       ?c  goto [J0891] +9 1722
 171A 385 02C                                   ?nc call [J0870] 0BE1
 171C 2D6                                       ? b<>0  xs
 171D 01B                                       ?nc goto [J0892] +3 1720
 171E 29C                                       pt= 7
 171F 210                                       lc 8
 1720 0FC     [J0892]                           ? rcr 10
 1721 14E                                       a=a+c   w
 1722 0AE     [J0891]                           ac ex   w
 1723 331 05C                                   ?nc call [J0893] 17CC
 1725 18C                                       ? s=0 11
 1726 023                                       ?nc goto [J0894] +4 172A
 1727 04C                                       ? s=0 4
 1728 30D 05F                                   ?c  goto [J0895] 17C3
 172A 31C     [J0894]                           pt= 1
 172B 098                                       c=g
 172C 1F6                                       c=c+c   xs
 172D 043                                       ?nc goto [J0896] +8 1735
 172E 04E                                       c=0     w
 172F 130 008                                   ldi 008
 1731 1A8                                       wrreg 6
 1732 130 00C                                   ldi 00C
 1734 03B                                       ?nc goto [J0897] +7 173B
 1735 04E     [J0896]                           c=0     w
 1736 130 00C                                   ldi 00C
 1738 1A8                                       wrreg 6
 1739 130 008                                   ldi 008
 173B 168     [J0897]                           wrreg 5
 173C 1A0                                       clear abc
 173D 138                                       rdreg 4
 173E 11E                                       a=c     s
 173F 17E                                       a=a+1   s
 1740 1B7                                       ?c  goto [J0898] +54 1776
 1741 17E                                       a=a+1   s
 1742 18F                                       ?c  goto [J0899] +49 1773
 1743 17E                                       a=a+1   s
 1744 03B                                       ?nc goto [J0900] +7 174B
 1745 1B8                                       rdreg 6
 1746 1BC                                       ? rcr 11
 1747 14E                                       a=a+c   w
 1748 3ED 01C                                   ?nc call [J0890] 07FB
 174A 163                                       ?nc goto [J0898] +44 1776
 174B 2A0     [J0900]                           set dec
 174C 2BE                                       c=-c-1  s
 174D 260                                       set hex
 174E 00E                                       a=0     w
 174F 2FC                                       ? rcr 13
 1750 39C                                       pt= 0
 1751 102                                       a=c     p
 1752 178                                       rdreg 5
 1753 1A2                                       a=a-1   p
 1754 097                                       ?c  goto [J0901] +18 1766
 1755 1A2                                       a=a-1   p
 1756 10F                                       ?c  goto [J0902] +33 1777
 1757 1A2                                       a=a-1   p
 1758 14F                                       ?c  goto [J0903] +41 1781
 1759 1A2                                       a=a-1   p
 175A 07F                                       ?c  goto [J0904] +15 1769
 175B 1A2                                       a=a-1   p
 175C 0F7                                       ?c  goto [J0905] +30 177A
 175D 1A2                                       a=a-1   p
 175E 147                                       ?c  goto [J0906] +40 1786
 175F 1A2                                       a=a-1   p
 1760 06F                                       ?c  goto [J0907] +13 176D
 1761 1A2                                       a=a-1   p
 1762 0EF                                       ?c  goto [J0908] +29 177F
 1763 1A2                                       a=a-1   p
 1764 12F                                       ?c  goto [J0909] +37 1789
 1765 063                                       ?nc goto [J0910] +12 1771
 1766 07C     [J0901]                           ? rcr 4
 1767 14E                                       a=a+c   w
 1768 1B8                                       rdreg 6
 1769 3ED 01C [J0904]                           ?nc call [J0890] 07FB
 176B 06E                                       ab ex   w
 176C 1B8                                       rdreg 6
 176D 17C     [J0907]                           ? rcr 6
 176E 3F1 01C                                   ?nc call [J0874] 07FC
 1770 1B8                                       rdreg 6
 1771 0BC     [J0910]                           ? rcr 5
 1772 0C3                                       ?nc goto [J0911] +24 178A
 1773 1B8     [J0899]                           rdreg 6
 1774 37C                                       ? rcr 12
 1775 14E                                       a=a+c   w
 1776 0E3     [J0898]                           ?nc goto [J0912] +28 1792
 1777 17C     [J0902]                           ? rcr 6
 1778 14E                                       a=a+c   w
 1779 1B8                                       rdreg 6
 177A 1BC     [J0905]                           ? rcr 11
 177B 3F1 01C                                   ?nc call [J0874] 07FC
 177D 06E                                       ab ex   w
 177E 1B8                                       rdreg 6
 177F 33C     [J0908]                           ? rcr 1
 1780 053                                       ?nc goto [J0911] +10 178A
 1781 17C     [J0903]                           ? rcr 6
 1782 3F1 01C                                   ?nc call [J0874] 07FC
 1784 06E                                       ab ex   w
 1785 1B8                                       rdreg 6
 1786 37C     [J0906]                           ? rcr 12
 1787 14E                                       a=a+c   w
 1788 1B8                                       rdreg 6
 1789 1BC     [J0909]                           ? rcr 11
 178A 14E     [J0911]                           a=a+c   w
 178B 19C                                       pt= 11
 178C 0B0                                       c=n
 178D 2FE                                       ? c<>0  s
 178E 023                                       ?nc goto [J0912] +4 1792
 178F 110                                       lc 4
 1790 19C                                       pt= 11
 1791 142                                       a=a+c   p
 1792 278     [J0912]                           rdreg 9
 1793 370                                       c=c|a
 1794 268                                       wrreg 9
 1795 06E                                       ab ex   w
 1796 35D 05C                                   ?nc call [J0913] 17D7
 1798 04E                                       c=0     w
 1799 0A0                                       sel p
 179A 194                                       ? pt= 11
 179B 023                                       ?nc goto [J0914] +4 179F
 179C 130 001                                   ldi 001
 179E 1BC                                       ? rcr 11
 179F 094     [J0914]                           ? pt= 5
 17A0 023                                       ?nc goto [J0915] +4 17A4
 17A1 130 100 [J0917]                           ldi 100
 17A3 01B                                       ?nc goto [J0916] +3 17A6
 17A4 214     [J0915]                           ? pt= 2
 17A5 3E7                                       ?c  goto [J0917] -4 17A1
 17A6 0E0     [J0916]                           sel q
 17A7 00C                                       ? s=0 3
 17A8 01F                                       ?c  goto [J0918] +3 17AB
 17A9 31C                                       pt= 1
 17AA 110                                       lc 4
 17AB 325 05C [J0918]                           ?nc call [J0919] 17C9
 17AD 04E                                       c=0     w
 17AE 38C                                       ? s=0 0
 17AF 01B                                       ?nc goto [J0920] +3 17B2
 17B0 0DC                                       pt= 10
 17B1 050                                       lc 1
 17B2 31C     [J0920]                           pt= 1
 17B3 098                                       c=g
 17B4 1F6                                       c=c+c   xs
 17B5 1F6                                       c=c+c   xs
 17B6 01F                                       ?c  goto [J0921] +3 17B9
 17B7 25C                                       pt= 9
 17B8 110                                       lc 4
 17B9 1F6     [J0921]                           c=c+c   xs
 17BA 1F6                                       c=c+c   xs
 17BB 01B                                       ?nc goto [J0922] +3 17BE
 17BC 11C                                       pt= 8
 17BD 050                                       lc 1
 17BE 046     [J0922]                           c=0     x
 17BF 359 05C                                   ?nc call [J0923] 17D6
 17C1 369 05C                                   ?nc call [J0924] 17DA
 17C3 138     [J0895]                           rdreg 4
 17C4 0EE                                       bc ex   w
 17C5 0A0                                       sel p
 17C6 2E0                                       disp off
 17C7 320                                       disp toggle
 17C8 3E0                                       rtn

 17C9 10E     [J0919]                           a=c     w
 17CA 278                                       rdreg 9
 17CB 370                                       c=c|a
 17CC 268     [J0893]                           wrreg 9
 17CD 06B                                       ?nc goto [J0924] +13 17DA
 17CE 04C     [J0865]                           ? s=0 4
 17CF 360                                       ?c rtn
 17D0 3C8                                       clr kb
 17D1 3CC                                       ? kb
 17D2 360                                       ?c rtn
 17D3 188                                       s=1 11
 17D4 3C9 02E                                   ?nc goto [J0034] 0BF2
 17D6 10E     [J0923]                           a=c     w
 17D7 2B8     [J0913]                           rdreg 10
 17D8 370                                       c=c|a
 17D9 2A8     [J0881]                           wrreg 10
 17DA 18C     [J0924]                           ? s=0 11
 17DB 39B                                       ?nc goto [J0865] -13 17CE
 17DC 3CC                                       ? kb
 17DD 3A0                                       ?nc rtn
 17DE 048                                       s=1 4
 17DF 3E0                                       rtn

 17E0 349 040                                   ?nc call [J0182] 10D2
 17E2 0B0                                       c=n
 17E3 3A8                                       wrreg 14
 17E4 344                                       s=0 12
 17E5 389 022                                   ?nc goto [J0925] 08E2
 17E7 1CD 040 [J0208]                           ?nc call [J0217] 1073
 17E9 2BE                                       c=-c-1  s
 17EA 048     [J0218]                           s=1 4
 17EB 379 028                                   ?nc call [J0184] 0ADE
 17ED 35D 04C                                   ?nc call [J0047] 13D7
 17EF 219 050                                   ?nc call [J0186] 1486
 17F1 148                                       s=1 6
 17F2 2A5 048                                   ?nc call [J0658] 12A9
 17F4 3C1 04C                                   ?nc call [J0712] 13F0
 17F6 219 050                                   ?nc call [J0186] 1486
 17F8 2FA                                       ? c<>0  m
 17F9 1E9 01F                                   ?c  goto [J0402] 077A
 17FB 1CD 040                                   ?nc call [J0217] 1073
 17FD 1FD 042                                   ?nc goto [J0199] 107F
 17FF 000                                       nop

